Component: ARM Compiler 5.06 update 3 (build 300) Tool: armlink [4d35c9]

==============================================================================

Section Cross References

    main.o(i._delay_ms) refers to softdelay.o(i._delay_us) for _delay_us
    main.o(i.dev_heartbeat) refers to inv_mpu.o(i.mpu_dmp_get_data) for mpu_dmp_get_data
    main.o(i.dev_heartbeat) refers to mpu6050.o(i.MPU_Get_Temperature) for MPU_Get_Temperature
    main.o(i.dev_heartbeat) refers to mpu6050.o(i.MPU_Get_Accelerometer) for MPU_Get_Accelerometer
    main.o(i.dev_heartbeat) refers to mpu6050.o(i.MPU_Get_Gyroscope) for MPU_Get_Gyroscope
    main.o(i.dev_heartbeat) refers to fflti.o(.text) for __aeabi_i2f
    main.o(i.dev_heartbeat) refers to f2d.o(.text) for __aeabi_f2d
    main.o(i.dev_heartbeat) refers to ddiv.o(.text) for __aeabi_ddiv
    main.o(i.dev_heartbeat) refers to d2f.o(.text) for __aeabi_d2f
    main.o(i.dev_heartbeat) refers to dflti.o(.text) for __aeabi_i2d
    main.o(i.dev_heartbeat) refers to atan2.o(i.atan2) for atan2
    main.o(i.dev_heartbeat) refers to dmul.o(.text) for __aeabi_dmul
    main.o(i.dev_heartbeat) refers to filters.o(i.Kalman_Filter) for Kalman_Filter
    main.o(i.dev_heartbeat) refers to battery.o(i.heartbeat_battery) for heartbeat_battery
    main.o(i.dev_heartbeat) refers to battery.o(i.get_electricitypercentage) for get_electricitypercentage
    main.o(i.dev_heartbeat) refers to beep.o(i.heartbeat_beep) for heartbeat_beep
    main.o(i.dev_heartbeat) refers to protocol.o(i.ReceiveData) for ReceiveData
    main.o(i.dev_heartbeat) refers to motor.o(i.speedctl_heartbeat) for speedctl_heartbeat
    main.o(i.dev_heartbeat) refers to motor.o(i.stalldetector_heartbeat) for stalldetector_heartbeat
    main.o(i.dev_heartbeat) refers to sonar.o(i.sonar_heartbeat) for sonar_heartbeat
    main.o(i.dev_heartbeat) refers to main.o(.data) for _MPU6050
    main.o(i.init_dev) refers to usart.o(i.usart3_init) for usart3_init
    main.o(i.init_dev) refers to led.o(i.drv_led_init) for drv_led_init
    main.o(i.init_dev) refers to battery.o(i.init_battery) for init_battery
    main.o(i.init_dev) refers to beep.o(i.init_beep) for init_beep
    main.o(i.init_dev) refers to motor.o(i.InitMotor) for InitMotor
    main.o(i.init_dev) refers to motor.o(i.stalldetector_init) for stalldetector_init
    main.o(i.init_dev) refers to sonar.o(i.sonar_init) for sonar_init
    main.o(i.init_dev) refers to mpu6050.o(i.MPU_Init) for MPU_Init
    main.o(i.init_dev) refers to inv_mpu.o(i.mpu_dmp_init) for mpu_dmp_init
    main.o(i.init_dev) refers to motor.o(i.set_walkingmotor_speed) for set_walkingmotor_speed
    main.o(i.init_dev) refers to main.o(.data) for _USART3
    main.o(i.loop) refers to battery.o(i.get_electricitypercentage) for get_electricitypercentage
    main.o(i.loop) refers to led.o(i.led_heartbeat) for led_heartbeat
    main.o(i.loop) refers to main.o(i.dev_heartbeat) for dev_heartbeat
    main.o(i.main) refers to main.o(i._delay_ms) for _delay_ms
    main.o(i.main) refers to hwconf.o(i.init_board) for init_board
    main.o(i.main) refers to main.o(i.init_dev) for init_dev
    main.o(i.main) refers to beep.o(i.play_poweron) for play_poweron
    main.o(i.main) refers to watchdog.o(i.enable_watchdog) for enable_watchdog
    main.o(i.main) refers to watchdog.o(i.mark_watchdog) for mark_watchdog
    main.o(i.main) refers to main.o(i.loop) for loop
    main.o(i.main) refers to watchdog.o(i.disable_watchdog) for disable_watchdog
    main.o(i.main) refers to led.o(i.drv_led_shutdown) for drv_led_shutdown
    main.o(i.main) refers to motor.o(i.set_walkingmotor_speed) for set_walkingmotor_speed
    main.o(i.main) refers to beep.o(i.on_abort_mode) for on_abort_mode
    main.o(i.pinMode) refers to stm32f10x_gpio.o(i.GPIO_Init) for GPIO_Init
    battery.o(i._delay_ms) refers to softdelay.o(i._delay_us) for _delay_us
    battery.o(i.get_electricity) refers to ffltui.o(.text) for __aeabi_ui2f
    battery.o(i.get_electricity) refers to f2d.o(.text) for __aeabi_f2d
    battery.o(i.get_electricity) refers to dmul.o(.text) for __aeabi_dmul
    battery.o(i.get_electricity) refers to dadd.o(.text) for __aeabi_dsub
    battery.o(i.get_electricity) refers to d2f.o(.text) for __aeabi_d2f
    battery.o(i.get_electricity) refers to hwconf.o(.data) for voltage
    battery.o(i.get_electricitypercentage) refers to battery.o(.data) for batteryElectricityPercentage
    battery.o(i.heartbeat_battery) refers to boarddrv.o(i.getms) for getms
    battery.o(i.heartbeat_battery) refers to battery.o(i.get_electricity) for get_electricity
    battery.o(i.heartbeat_battery) refers to ffixui.o(.text) for __aeabi_f2uiz
    battery.o(i.heartbeat_battery) refers to ffltui.o(.text) for __aeabi_ui2f
    battery.o(i.heartbeat_battery) refers to fmul.o(.text) for __aeabi_fmul
    battery.o(i.heartbeat_battery) refers to fdiv.o(.text) for __aeabi_fdiv
    battery.o(i.heartbeat_battery) refers to battery.o(.data) for batteryFrequency
    battery.o(i.init_battery) refers to stm32f10x_rcc.o(i.RCC_APB2PeriphClockCmd) for RCC_APB2PeriphClockCmd
    battery.o(i.init_battery) refers to stm32f10x_gpio.o(i.GPIO_Init) for GPIO_Init
    battery.o(i.pinMode) refers to stm32f10x_gpio.o(i.GPIO_Init) for GPIO_Init
    beep.o(i._delay_ms) refers to softdelay.o(i._delay_us) for _delay_us
    beep.o(i.beep_beeper) refers to boarddrv.o(i.getms) for getms
    beep.o(i.beep_beeper) refers to beep.o(i.stop_beep) for stop_beep
    beep.o(i.beep_beeper) refers to beep.o(i.set_beep_sound) for set_beep_sound
    beep.o(i.beep_beeper) refers to beep.o(i.set_beep_frequency) for set_beep_frequency
    beep.o(i.beep_beeper) refers to beep.o(i.start_beep) for start_beep
    beep.o(i.beep_beeper) refers to beep.o(.data) for _delay
    beep.o(i.disable_beep) refers to stm32f10x_gpio.o(i.GPIO_Init) for GPIO_Init
    beep.o(i.enable_beep) refers to stm32f10x_gpio.o(i.GPIO_Init) for GPIO_Init
    beep.o(i.heartbeat_beep) refers to boarddrv.o(i.getms) for getms
    beep.o(i.heartbeat_beep) refers to beep.o(i.stop_beep) for stop_beep
    beep.o(i.heartbeat_beep) refers to cfcmple.o(.text) for __aeabi_cfcmple
    beep.o(i.heartbeat_beep) refers to beep.o(i.start_beep) for start_beep
    beep.o(i.heartbeat_beep) refers to beep.o(.data) for _startMs
    beep.o(i.init_beep) refers to stm32f10x_rcc.o(i.RCC_APB1PeriphClockCmd) for RCC_APB1PeriphClockCmd
    beep.o(i.init_beep) refers to stm32f10x_rcc.o(i.RCC_APB2PeriphClockCmd) for RCC_APB2PeriphClockCmd
    beep.o(i.init_beep) refers to stm32f10x_gpio.o(i.GPIO_PinRemapConfig) for GPIO_PinRemapConfig
    beep.o(i.init_beep) refers to stm32f10x_gpio.o(i.GPIO_Init) for GPIO_Init
    beep.o(i.init_beep) refers to stm32f10x_tim.o(i.TIM_TimeBaseInit) for TIM_TimeBaseInit
    beep.o(i.init_beep) refers to stm32f10x_tim.o(i.TIM_OC1Init) for TIM_OC1Init
    beep.o(i.init_beep) refers to stm32f10x_tim.o(i.TIM_CtrlPWMOutputs) for TIM_CtrlPWMOutputs
    beep.o(i.init_beep) refers to stm32f10x_tim.o(i.TIM_OC1PreloadConfig) for TIM_OC1PreloadConfig
    beep.o(i.init_beep) refers to stm32f10x_tim.o(i.TIM_ARRPreloadConfig) for TIM_ARRPreloadConfig
    beep.o(i.init_beep) refers to stm32f10x_tim.o(i.TIM_Cmd) for TIM_Cmd
    beep.o(i.on_abort_mode) refers to beep.o(i.stop_beep) for stop_beep
    beep.o(i.on_abort_mode) refers to beep.o(i.start_beep) for start_beep
    beep.o(i.on_abort_mode) refers to beep.o(i._delay_ms) for _delay_ms
    beep.o(i.pinMode) refers to stm32f10x_gpio.o(i.GPIO_Init) for GPIO_Init
    beep.o(i.play_poweron) refers to beep.o(i.stop_beep) for stop_beep
    beep.o(i.play_poweron) refers to beep.o(i.start_beep) for start_beep
    beep.o(i.play_poweron) refers to beep.o(i._delay_ms) for _delay_ms
    beep.o(i.play_poweron_frequency) refers to beep.o(i.stop_beep) for stop_beep
    beep.o(i.play_poweron_frequency) refers to beep.o(i.set_beep_frequency) for set_beep_frequency
    beep.o(i.play_poweron_frequency) refers to beep.o(i.start_beep) for start_beep
    beep.o(i.play_poweron_frequency) refers to beep.o(i._delay_ms) for _delay_ms
    beep.o(i.play_poweron_frequency) refers to beep.o(.data) for HighFrequency
    beep.o(i.start_beep) refers to beep.o(i.enable_beep) for enable_beep
    beep.o(i.stop_beep) refers to beep.o(i.disable_beep) for disable_beep
    boarddrv.o(i.SysTick_Handler) refers to boarddrv.o(.data) for _systick_val
    boarddrv.o(i._delay_ms) refers to softdelay.o(i._delay_us) for _delay_us
    boarddrv.o(i.alert) refers to boarddrv.o(.data) for alert_flg
    boarddrv.o(i.board_abort_mode) refers to boarddrv.o(.data) for _abort_proc
    boarddrv.o(i.board_set_abort_proc) refers to boarddrv.o(.data) for _abort_proc
    boarddrv.o(i.clear_alert) refers to boarddrv.o(.data) for alert_flg
    boarddrv.o(i.delay) refers to boarddrv.o(i.getms) for getms
    boarddrv.o(i.delay_alert) refers to boarddrv.o(i.getms) for getms
    boarddrv.o(i.delay_alert) refers to boarddrv.o(i.clear_alert) for clear_alert
    boarddrv.o(i.delay_alert) refers to boarddrv.o(.data) for alert_flg
    boarddrv.o(i.get_adc) refers to stm32f10x_adc.o(i.ADC_RegularChannelConfig) for ADC_RegularChannelConfig
    boarddrv.o(i.get_adc) refers to stm32f10x_adc.o(i.ADC_SoftwareStartConvCmd) for ADC_SoftwareStartConvCmd
    boarddrv.o(i.get_adc) refers to stm32f10x_adc.o(i.ADC_GetFlagStatus) for ADC_GetFlagStatus
    boarddrv.o(i.get_adc) refers to stm32f10x_adc.o(i.ADC_GetConversionValue) for ADC_GetConversionValue
    boarddrv.o(i.get_adc_average) refers to boarddrv.o(i.get_adc) for get_adc
    boarddrv.o(i.get_adc_average) refers to watchdog.o(i.mark_watchdog) for mark_watchdog
    boarddrv.o(i.get_adc_average) refers to boarddrv.o(i._delay_ms) for _delay_ms
    boarddrv.o(i.getms) refers to boarddrv.o(.data) for _systick_val
    boarddrv.o(i.getus) refers to boarddrv.o(i.enter_critical_section) for enter_critical_section
    boarddrv.o(i.getus) refers to boarddrv.o(i.leave_critical_section) for leave_critical_section
    boarddrv.o(i.getus) refers to boarddrv.o(.data) for _systick_val
    boarddrv.o(i.is_alert) refers to boarddrv.o(.data) for alert_flg
    boarddrv.o(i.pinMode) refers to stm32f10x_gpio.o(i.GPIO_Init) for GPIO_Init
    boarddrv.o(.data) refers to boarddrv.o(i._default_abort_proc) for _default_abort_proc
    crc.o(i.Get_Crc16) refers to crc.o(.constdata) for auchCRCHi
    led.o(i._delay_ms) refers to softdelay.o(i._delay_us) for _delay_us
    led.o(i.drv_led_init) refers to stm32f10x_rcc.o(i.RCC_APB2PeriphClockCmd) for RCC_APB2PeriphClockCmd
    led.o(i.drv_led_init) refers to stm32f10x_gpio.o(i.GPIO_Init) for GPIO_Init
    led.o(i.drv_led_init) refers to led.o(i.drv_led_set) for drv_led_set
    led.o(i.drv_led_init) refers to led.o(i.drv_led_reset) for drv_led_reset
    led.o(i.drv_led_init) refers to led.o(.data) for led_b
    led.o(i.drv_led_reset) refers to softdelay.o(i._delay_us) for _delay_us
    led.o(i.drv_led_set) refers to led.o(i.drv_led_cmd) for drv_led_cmd
    led.o(i.drv_led_set) refers to led.o(.data) for led_r
    led.o(i.drv_led_shutdown) refers to stm32f10x_rcc.o(i.RCC_APB2PeriphClockCmd) for RCC_APB2PeriphClockCmd
    led.o(i.drv_led_shutdown) refers to stm32f10x_gpio.o(i.GPIO_Init) for GPIO_Init
    led.o(i.drv_led_shutdown) refers to led.o(i.drv_led_set) for drv_led_set
    led.o(i.drv_led_shutdown) refers to led.o(i.drv_led_reset) for drv_led_reset
    led.o(i.drv_led_shutdown) refers to led.o(.data) for led_b
    led.o(i.led_heartbeat) refers to cfcmple.o(.text) for __aeabi_cfcmple
    led.o(i.led_heartbeat) refers to boarddrv.o(i.getms) for getms
    led.o(i.led_heartbeat) refers to led.o(i.drv_led_set) for drv_led_set
    led.o(i.led_heartbeat) refers to led.o(.data) for _led_ticks
    led.o(i.pinMode) refers to stm32f10x_gpio.o(i.GPIO_Init) for GPIO_Init
    motor.o(i.InitMotor) refers to stm32f10x_rcc.o(i.RCC_APB2PeriphClockCmd) for RCC_APB2PeriphClockCmd
    motor.o(i.InitMotor) refers to stm32f10x_gpio.o(i.GPIO_Init) for GPIO_Init
    motor.o(i.InitMotor) refers to motor.o(i.InitPWM) for InitPWM
    motor.o(i.InitMotor) refers to motor.o(i.init_walkingmotor_odometer) for init_walkingmotor_odometer
    motor.o(i.InitPWM) refers to stm32f10x_rcc.o(i.RCC_APB2PeriphClockCmd) for RCC_APB2PeriphClockCmd
    motor.o(i.InitPWM) refers to stm32f10x_gpio.o(i.GPIO_Init) for GPIO_Init
    motor.o(i.InitPWM) refers to stm32f10x_tim.o(i.TIM_TimeBaseInit) for TIM_TimeBaseInit
    motor.o(i.InitPWM) refers to stm32f10x_tim.o(i.TIM_OC3Init) for TIM_OC3Init
    motor.o(i.InitPWM) refers to stm32f10x_tim.o(i.TIM_OC3PreloadConfig) for TIM_OC3PreloadConfig
    motor.o(i.InitPWM) refers to stm32f10x_tim.o(i.TIM_OC4Init) for TIM_OC4Init
    motor.o(i.InitPWM) refers to stm32f10x_tim.o(i.TIM_OC4PreloadConfig) for TIM_OC4PreloadConfig
    motor.o(i.InitPWM) refers to stm32f10x_tim.o(i.TIM_CtrlPWMOutputs) for TIM_CtrlPWMOutputs
    motor.o(i.InitPWM) refers to stm32f10x_tim.o(i.TIM_ARRPreloadConfig) for TIM_ARRPreloadConfig
    motor.o(i.InitPWM) refers to stm32f10x_tim.o(i.TIM_Cmd) for TIM_Cmd
    motor.o(i.InitPWM) refers to motor.o(i.set_walkingmotor_lduty) for set_walkingmotor_lduty
    motor.o(i.InitPWM) refers to motor.o(i.set_walkingmotor_rduty) for set_walkingmotor_rduty
    motor.o(i.InitPWM) refers to motor.o(.data) for _motorSpeedMm
    motor.o(i.NVIC_Configuration) refers to misc.o(i.NVIC_PriorityGroupConfig) for NVIC_PriorityGroupConfig
    motor.o(i.NVIC_Configuration) refers to misc.o(i.NVIC_Init) for NVIC_Init
    motor.o(i._control_walkingmotor_speed_byid) refers to motor.o(i._set_walkingmotor_duty) for _set_walkingmotor_duty
    motor.o(i._control_walkingmotor_speed_byid) refers to cfrcmple.o(.text) for __aeabi_cfrcmple
    motor.o(i._control_walkingmotor_speed_byid) refers to fflti.o(.text) for __aeabi_i2f
    motor.o(i._control_walkingmotor_speed_byid) refers to fadd.o(.text) for __aeabi_fsub
    motor.o(i._control_walkingmotor_speed_byid) refers to fmul.o(.text) for __aeabi_fmul
    motor.o(i._control_walkingmotor_speed_byid) refers to cfcmple.o(.text) for __aeabi_cfcmple
    motor.o(i._control_walkingmotor_speed_byid) refers to ffixi.o(.text) for __aeabi_f2iz
    motor.o(i._control_walkingmotor_speed_byid) refers to motor.o(.data) for _motorSpeedMm
    motor.o(i._delay_ms) refers to softdelay.o(i._delay_us) for _delay_us
    motor.o(i._refresh_walkingmotor_odometer) refers to motor.o(i.enter_critical_section) for enter_critical_section
    motor.o(i._refresh_walkingmotor_odometer) refers to motor.o(i.leave_critical_section) for leave_critical_section
    motor.o(i._refresh_walkingmotor_odometer) refers to ffltui.o(.text) for __aeabi_ui2f
    motor.o(i._refresh_walkingmotor_odometer) refers to f2d.o(.text) for __aeabi_f2d
    motor.o(i._refresh_walkingmotor_odometer) refers to dmul.o(.text) for __aeabi_dmul
    motor.o(i._refresh_walkingmotor_odometer) refers to d2f.o(.text) for __aeabi_d2f
    motor.o(i._refresh_walkingmotor_odometer) refers to dfltui.o(.text) for __aeabi_ui2d
    motor.o(i._refresh_walkingmotor_odometer) refers to ddiv.o(.text) for __aeabi_ddiv
    motor.o(i._refresh_walkingmotor_odometer) refers to fadd.o(.text) for __aeabi_fadd
    motor.o(i._refresh_walkingmotor_odometer) refers to ffixui.o(.text) for __aeabi_f2uiz
    motor.o(i._refresh_walkingmotor_odometer) refers to motor.o(.data) for _encoderTicksDelta
    motor.o(i._release_walkingmotor_l) refers to motor.o(i.pinMode) for pinMode
    motor.o(i._release_walkingmotor_l) refers to softdelay.o(i._delay_us) for _delay_us
    motor.o(i._release_walkingmotor_r) refers to motor.o(i.pinMode) for pinMode
    motor.o(i._release_walkingmotor_r) refers to softdelay.o(i._delay_us) for _delay_us
    motor.o(i._set_walkingmotor_duty) refers to motor.o(i.set_walkingmotor_rduty) for set_walkingmotor_rduty
    motor.o(i._set_walkingmotor_duty) refers to motor.o(i.set_walkingmotor_lduty) for set_walkingmotor_lduty
    motor.o(i.control_walkingmotor_speed) refers to motor.o(i._control_walkingmotor_speed_byid) for _control_walkingmotor_speed_byid
    motor.o(i.encoder_l1_exti_cb) refers to motor.o(.data) for _encoderTicksDelta
    motor.o(i.encoder_r1_exti_cb) refers to motor.o(.data) for _encoderTicksDelta
    motor.o(i.get_walkingmotor_lspeed_mm) refers to motor.o(i.get_walkingmotor_lspeed_set) for get_walkingmotor_lspeed_set
    motor.o(i.get_walkingmotor_lspeed_mm) refers to motor.o(.data) for _lastOdometerSpeedAbs
    motor.o(i.get_walkingmotor_lspeed_set) refers to motor.o(.data) for _motorSpeedMm
    motor.o(i.get_walkingmotor_rspeed_mm) refers to motor.o(i.get_walkingmotor_rspeed_set) for get_walkingmotor_rspeed_set
    motor.o(i.get_walkingmotor_rspeed_mm) refers to motor.o(.data) for _lastOdometerSpeedAbs
    motor.o(i.get_walkingmotor_rspeed_set) refers to motor.o(.data) for _motorSpeedMm
    motor.o(i.init_extix) refers to stm32f10x_rcc.o(i.RCC_APB2PeriphClockCmd) for RCC_APB2PeriphClockCmd
    motor.o(i.init_extix) refers to stm32f10x_gpio.o(i.GPIO_Init) for GPIO_Init
    motor.o(i.init_extix) refers to stm32f10x_gpio.o(i.GPIO_EXTILineConfig) for GPIO_EXTILineConfig
    motor.o(i.init_extix) refers to motor.o(i.NVIC_Configuration) for NVIC_Configuration
    motor.o(i.init_extix) refers to motor.o(i.GPIO_PortSource) for GPIO_PortSource
    motor.o(i.init_extix) refers to exti.o(i.exti_reg_callback) for exti_reg_callback
    motor.o(i.init_extix) refers to motor.o(.constdata) for _motor_cfg
    motor.o(i.init_extix) refers to motor.o(i.encoder_l1_exti_cb) for encoder_l1_exti_cb
    motor.o(i.init_extix) refers to motor.o(i.encoder_r1_exti_cb) for encoder_r1_exti_cb
    motor.o(i.init_extix) refers to motor.o(i.test_button_callback) for test_button_callback
    motor.o(i.init_walkingmotor_odometer) refers to motor.o(i.init_extix) for init_extix
    motor.o(i.init_walkingmotor_odometer) refers to motor.o(.data) for _motorDeltaTicks
    motor.o(i.pinMode) refers to stm32f10x_gpio.o(i.GPIO_Init) for GPIO_Init
    motor.o(i.set_walkingmotor_lduty) refers to motor.o(i._release_walkingmotor_l) for _release_walkingmotor_l
    motor.o(i.set_walkingmotor_lduty) refers to motor.o(i.pinMode) for pinMode
    motor.o(i.set_walkingmotor_lduty) refers to motor.o(.data) for _motorCtrlStates
    motor.o(i.set_walkingmotor_rduty) refers to motor.o(i._release_walkingmotor_r) for _release_walkingmotor_r
    motor.o(i.set_walkingmotor_rduty) refers to motor.o(i.pinMode) for pinMode
    motor.o(i.set_walkingmotor_rduty) refers to motor.o(.data) for _motorCtrlStates
    motor.o(i.set_walkingmotor_speed) refers to motor.o(.data) for _motorSpeedMm
    motor.o(i.speedctl_heartbeat) refers to boarddrv.o(i.getms) for getms
    motor.o(i.speedctl_heartbeat) refers to motor.o(i._refresh_walkingmotor_odometer) for _refresh_walkingmotor_odometer
    motor.o(i.speedctl_heartbeat) refers to motor.o(i.control_walkingmotor_speed) for control_walkingmotor_speed
    motor.o(i.speedctl_heartbeat) refers to motor.o(.data) for speedctl_frequency
    motor.o(i.stalldetector_enterBlindMode) refers to boarddrv.o(i.getms) for getms
    motor.o(i.stalldetector_enterBlindMode) refers to motor.o(.data) for _stallFilterBlindModeTS
    motor.o(i.stalldetector_heartbeat) refers to boarddrv.o(i.getms) for getms
    motor.o(i.stalldetector_heartbeat) refers to cfrcmple.o(.text) for __aeabi_cfrcmple
    motor.o(i.stalldetector_heartbeat) refers to cfcmple.o(.text) for __aeabi_cfcmple
    motor.o(i.stalldetector_heartbeat) refers to motor.o(i.countbit) for countbit
    motor.o(i.stalldetector_heartbeat) refers to motor.o(.data) for _stallDetectorTS
    motor.o(i.stalldetector_init) refers to motor.o(.data) for _stallFilterBlindModeTS
    motor.o(i.stalldetector_is_bumped) refers to motor.o(.data) for _stallBitmap
    motor.o(i.stalldetector_is_stalled) refers to motor.o(.data) for _stallBitmap
    motor.o(i.test_button_callback) refers to watchdog.o(i.disable_watchdog) for disable_watchdog
    motor.o(i.test_button_callback) refers to motor.o(i._delay_ms) for _delay_ms
    motor.o(i.test_button_callback) refers to beep.o(i.stop_beep) for stop_beep
    motor.o(i.test_button_callback) refers to beep.o(i.start_beep) for start_beep
    motor.o(i.test_button_callback) refers to led.o(i.drv_led_set) for drv_led_set
    motor.o(i.test_button_callback) refers to motor.o(i.set_walkingmotor_speed) for set_walkingmotor_speed
    motor.o(i.test_button_callback) refers to motor.o(i.speedctl_heartbeat) for speedctl_heartbeat
    motor.o(i.test_button_callback) refers to watchdog.o(i.enable_watchdog) for enable_watchdog
    softdelay.o(i._delay_ms) refers to softdelay.o(i._delay_us) for _delay_us
    softdelay.o(i._delay_us) refers to softdelay.o(i._delay_loop) for _delay_loop
    softdelay.o(i._delay_us) refers to softdelay.o(.data) for _ticks_per_us
    softdelay.o(i.pinMode) refers to stm32f10x_gpio.o(i.GPIO_Init) for GPIO_Init
    softdelay.o(i.softdelay_calibrate) refers to boarddrv.o(i.getus) for getus
    softdelay.o(i.softdelay_calibrate) refers to softdelay.o(i._delay_loop) for _delay_loop
    softdelay.o(i.softdelay_calibrate) refers to uldiv.o(.text) for __aeabi_uldivmod
    softdelay.o(i.softdelay_calibrate) refers to softdelay.o(.data) for _ticks_per_us
    usart.o(i.DMA_Enable) refers to stm32f10x_dma.o(i.DMA_Cmd) for DMA_Cmd
    usart.o(i.DMA_Enable) refers to stm32f10x_dma.o(i.DMA_SetCurrDataCounter) for DMA_SetCurrDataCounter
    usart.o(i.UART4_IRQHandler) refers to stm32f10x_usart.o(i.USART_GetITStatus) for USART_GetITStatus
    usart.o(i.UART4_IRQHandler) refers to stm32f10x_usart.o(i.USART_ClearITPendingBit) for USART_ClearITPendingBit
    usart.o(i.UART4_IRQHandler) refers to stm32f10x_usart.o(i.USART_ReceiveData) for USART_ReceiveData
    usart.o(i.UART4_IRQHandler) refers to stm32f10x_usart.o(i.USART_GetFlagStatus) for USART_GetFlagStatus
    usart.o(i.UART4_IRQHandler) refers to stm32f10x_usart.o(i.USART_ClearFlag) for USART_ClearFlag
    usart.o(i.UART4_IRQHandler) refers to usart.o(.bss) for UART4_RX_BUF
    usart.o(i.UART4_IRQHandler) refers to usart.o(.data) for Res4
    usart.o(i.USART2_IRQHandler) refers to stm32f10x_usart.o(i.USART_GetITStatus) for USART_GetITStatus
    usart.o(i.USART2_IRQHandler) refers to stm32f10x_usart.o(i.USART_ClearITPendingBit) for USART_ClearITPendingBit
    usart.o(i.USART2_IRQHandler) refers to stm32f10x_usart.o(i.USART_ReceiveData) for USART_ReceiveData
    usart.o(i.USART2_IRQHandler) refers to stm32f10x_usart.o(i.USART_GetFlagStatus) for USART_GetFlagStatus
    usart.o(i.USART2_IRQHandler) refers to stm32f10x_usart.o(i.USART_ClearFlag) for USART_ClearFlag
    usart.o(i.USART2_IRQHandler) refers to usart.o(.bss) for USART2_RX_BUF
    usart.o(i.USART2_IRQHandler) refers to usart.o(.data) for Res2
    usart.o(i.USART3_IRQHandler) refers to stm32f10x_usart.o(i.USART_GetITStatus) for USART_GetITStatus
    usart.o(i.USART3_IRQHandler) refers to stm32f10x_usart.o(i.USART_ReceiveData) for USART_ReceiveData
    usart.o(i.USART3_IRQHandler) refers to stm32f10x_usart.o(i.USART_ClearITPendingBit) for USART_ClearITPendingBit
    usart.o(i.USART3_IRQHandler) refers to usart.o(i.DMA_Enable) for DMA_Enable
    usart.o(i.USART3_IRQHandler) refers to usart.o(.data) for USART3_RX_STA
    usart.o(i._delay_ms) refers to softdelay.o(i._delay_us) for _delay_us
    usart.o(i.pinMode) refers to stm32f10x_gpio.o(i.GPIO_Init) for GPIO_Init
    usart.o(i.uart4_init) refers to stm32f10x_rcc.o(i.RCC_APB2PeriphClockCmd) for RCC_APB2PeriphClockCmd
    usart.o(i.uart4_init) refers to stm32f10x_rcc.o(i.RCC_APB1PeriphClockCmd) for RCC_APB1PeriphClockCmd
    usart.o(i.uart4_init) refers to stm32f10x_gpio.o(i.GPIO_Init) for GPIO_Init
    usart.o(i.uart4_init) refers to misc.o(i.NVIC_Init) for NVIC_Init
    usart.o(i.uart4_init) refers to stm32f10x_usart.o(i.USART_Init) for USART_Init
    usart.o(i.uart4_init) refers to stm32f10x_usart.o(i.USART_ITConfig) for USART_ITConfig
    usart.o(i.uart4_init) refers to stm32f10x_usart.o(i.USART_Cmd) for USART_Cmd
    usart.o(i.usart2_init) refers to stm32f10x_rcc.o(i.RCC_APB2PeriphClockCmd) for RCC_APB2PeriphClockCmd
    usart.o(i.usart2_init) refers to stm32f10x_rcc.o(i.RCC_APB1PeriphClockCmd) for RCC_APB1PeriphClockCmd
    usart.o(i.usart2_init) refers to stm32f10x_gpio.o(i.GPIO_Init) for GPIO_Init
    usart.o(i.usart2_init) refers to misc.o(i.NVIC_Init) for NVIC_Init
    usart.o(i.usart2_init) refers to stm32f10x_usart.o(i.USART_Init) for USART_Init
    usart.o(i.usart2_init) refers to stm32f10x_usart.o(i.USART_ITConfig) for USART_ITConfig
    usart.o(i.usart2_init) refers to stm32f10x_usart.o(i.USART_Cmd) for USART_Cmd
    usart.o(i.usart3_init) refers to stm32f10x_rcc.o(i.RCC_APB2PeriphClockCmd) for RCC_APB2PeriphClockCmd
    usart.o(i.usart3_init) refers to stm32f10x_rcc.o(i.RCC_APB1PeriphClockCmd) for RCC_APB1PeriphClockCmd
    usart.o(i.usart3_init) refers to stm32f10x_gpio.o(i.GPIO_Init) for GPIO_Init
    usart.o(i.usart3_init) refers to misc.o(i.NVIC_Init) for NVIC_Init
    usart.o(i.usart3_init) refers to stm32f10x_usart.o(i.USART_Init) for USART_Init
    usart.o(i.usart3_init) refers to stm32f10x_usart.o(i.USART_ITConfig) for USART_ITConfig
    usart.o(i.usart3_init) refers to stm32f10x_usart.o(i.USART_Cmd) for USART_Cmd
    usart.o(i.usart3_init) refers to stm32f10x_dma.o(i.DMA_DeInit) for DMA_DeInit
    usart.o(i.usart3_init) refers to stm32f10x_dma.o(i.DMA_Init) for DMA_Init
    usart.o(i.usart3_init) refers to stm32f10x_dma.o(i.DMA_Cmd) for DMA_Cmd
    usart.o(i.usart3_init) refers to stm32f10x_usart.o(i.USART_DMACmd) for USART_DMACmd
    usart.o(i.usart3_init) refers to usart.o(.bss) for send_data
    watchdog.o(i._delay_ms) refers to softdelay.o(i._delay_us) for _delay_us
    watchdog.o(i.disable_watchdog) refers to watchdog.o(i.mark_watchdog) for mark_watchdog
    watchdog.o(i.disable_watchdog) refers to stm32f10x_rcc.o(i.RCC_APB1PeriphClockCmd) for RCC_APB1PeriphClockCmd
    watchdog.o(i.enable_watchdog) refers to stm32f10x_rcc.o(i.RCC_ClearFlag) for RCC_ClearFlag
    watchdog.o(i.enable_watchdog) refers to stm32f10x_rcc.o(i.RCC_APB1PeriphClockCmd) for RCC_APB1PeriphClockCmd
    watchdog.o(i.enable_watchdog) refers to stm32f10x_wwdg.o(i.WWDG_SetPrescaler) for WWDG_SetPrescaler
    watchdog.o(i.enable_watchdog) refers to stm32f10x_wwdg.o(i.WWDG_SetWindowValue) for WWDG_SetWindowValue
    watchdog.o(i.enable_watchdog) refers to stm32f10x_wwdg.o(i.WWDG_Enable) for WWDG_Enable
    watchdog.o(i.mark_watchdog) refers to stm32f10x_wwdg.o(i.WWDG_SetCounter) for WWDG_SetCounter
    watchdog.o(i.pinMode) refers to stm32f10x_gpio.o(i.GPIO_Init) for GPIO_Init
    exti.o(i.EXTI0_IRQHandler) refers to stm32f10x_exti.o(i.EXTI_ClearITPendingBit) for EXTI_ClearITPendingBit
    exti.o(i.EXTI0_IRQHandler) refers to exti.o(.bss) for g_exti_cb
    exti.o(i.EXTI15_10_IRQHandler) refers to exti.o(i._delay_ms) for _delay_ms
    exti.o(i.EXTI15_10_IRQHandler) refers to stm32f10x_exti.o(i.EXTI_ClearITPendingBit) for EXTI_ClearITPendingBit
    exti.o(i.EXTI15_10_IRQHandler) refers to exti.o(.bss) for g_exti_cb
    exti.o(i.EXTI1_IRQHandler) refers to stm32f10x_exti.o(i.EXTI_ClearITPendingBit) for EXTI_ClearITPendingBit
    exti.o(i.EXTI1_IRQHandler) refers to exti.o(.bss) for g_exti_cb
    exti.o(i.EXTI2_IRQHandler) refers to stm32f10x_exti.o(i.EXTI_ClearITPendingBit) for EXTI_ClearITPendingBit
    exti.o(i.EXTI2_IRQHandler) refers to exti.o(.bss) for g_exti_cb
    exti.o(i.EXTI3_IRQHandler) refers to stm32f10x_exti.o(i.EXTI_ClearITPendingBit) for EXTI_ClearITPendingBit
    exti.o(i.EXTI3_IRQHandler) refers to exti.o(.bss) for g_exti_cb
    exti.o(i.EXTI4_IRQHandler) refers to stm32f10x_exti.o(i.EXTI_ClearITPendingBit) for EXTI_ClearITPendingBit
    exti.o(i.EXTI4_IRQHandler) refers to exti.o(.bss) for g_exti_cb
    exti.o(i.EXTI9_5_IRQHandler) refers to stm32f10x_exti.o(i.EXTI_ClearITPendingBit) for EXTI_ClearITPendingBit
    exti.o(i.EXTI9_5_IRQHandler) refers to exti.o(.bss) for g_exti_cb
    exti.o(i._delay_ms) refers to softdelay.o(i._delay_us) for _delay_us
    exti.o(i.exti_reg_callback) refers to stm32f10x_exti.o(i.EXTI_ClearITPendingBit) for EXTI_ClearITPendingBit
    exti.o(i.exti_reg_callback) refers to stm32f10x_exti.o(i.EXTI_Init) for EXTI_Init
    exti.o(i.exti_reg_callback) refers to misc.o(i.NVIC_Init) for NVIC_Init
    exti.o(i.exti_reg_callback) refers to exti.o(.bss) for g_exti_cb
    exti.o(i.exti_reg_callback) refers to exti.o(.data) for g_irq_flag
    exti.o(i.exti_unreg_callback) refers to stm32f10x_exti.o(i.EXTI_ClearITPendingBit) for EXTI_ClearITPendingBit
    exti.o(i.exti_unreg_callback) refers to stm32f10x_exti.o(i.EXTI_Init) for EXTI_Init
    exti.o(i.exti_unreg_callback) refers to misc.o(i.NVIC_Init) for NVIC_Init
    exti.o(i.exti_unreg_callback) refers to exti.o(.bss) for g_exti_cb
    exti.o(i.exti_unreg_callback) refers to exti.o(.data) for g_irq_flag
    exti.o(i.pinMode) refers to stm32f10x_gpio.o(i.GPIO_Init) for GPIO_Init
    sonar.o(i.SONAR_TRIG) refers to stm32f10x_gpio.o(i.GPIO_SetBits) for GPIO_SetBits
    sonar.o(i.SONAR_TRIG) refers to stm32f10x_gpio.o(i.GPIO_ResetBits) for GPIO_ResetBits
    sonar.o(i.SONAR_TRIG) refers to sonar.o(.constdata) for g_sonar_cfg
    sonar.o(i._delay_ms) refers to softdelay.o(i._delay_us) for _delay_us
    sonar.o(i.pinMode) refers to stm32f10x_gpio.o(i.GPIO_Init) for GPIO_Init
    sonar.o(i.sonar_distance) refers to fflti.o(.text) for __aeabi_i2f
    sonar.o(i.sonar_distance) refers to f2d.o(.text) for __aeabi_f2d
    sonar.o(i.sonar_distance) refers to dmul.o(.text) for __aeabi_dmul
    sonar.o(i.sonar_distance) refers to dadd.o(.text) for __aeabi_dadd
    sonar.o(i.sonar_distance) refers to d2f.o(.text) for __aeabi_d2f
    sonar.o(i.sonar_distance) refers to dfltui.o(.text) for __aeabi_ui2d
    sonar.o(i.sonar_distance) refers to ddiv.o(.text) for __aeabi_ddiv
    sonar.o(i.sonar_distance) refers to sonar.o(.bss) for g_sonar
    sonar.o(i.sonar_distance) refers to main.o(.data) for Temperature
    sonar.o(i.sonar_exit) refers to sonar.o(i.SONAR_TRIG) for SONAR_TRIG
    sonar.o(i.sonar_exit) refers to memseta.o(.text) for __aeabi_memclr4
    sonar.o(i.sonar_exit) refers to sonar.o(.bss) for g_sonar
    sonar.o(i.sonar_exti_cb) refers to stm32f10x_gpio.o(i.GPIO_ReadInputDataBit) for GPIO_ReadInputDataBit
    sonar.o(i.sonar_exti_cb) refers to stm32f10x_rcc.o(i.RCC_APB1PeriphClockCmd) for RCC_APB1PeriphClockCmd
    sonar.o(i.sonar_exti_cb) refers to stm32f10x_tim.o(i.TIM_TimeBaseInit) for TIM_TimeBaseInit
    sonar.o(i.sonar_exti_cb) refers to stm32f10x_tim.o(i.TIM_SetCounter) for TIM_SetCounter
    sonar.o(i.sonar_exti_cb) refers to stm32f10x_tim.o(i.TIM_Cmd) for TIM_Cmd
    sonar.o(i.sonar_exti_cb) refers to stm32f10x_tim.o(i.TIM_GetCounter) for TIM_GetCounter
    sonar.o(i.sonar_exti_cb) refers to sonar.o(.data) for g_sonar_ch
    sonar.o(i.sonar_exti_cb) refers to sonar.o(.constdata) for g_sonar_cfg
    sonar.o(i.sonar_exti_cb) refers to sonar.o(.bss) for g_sonar
    sonar.o(i.sonar_get) refers to sonar.o(i.sonar_distance) for sonar_distance
    sonar.o(i.sonar_get) refers to ffixui.o(.text) for __aeabi_f2uiz
    sonar.o(i.sonar_get) refers to sonar.o(.bss) for g_sonar
    sonar.o(i.sonar_heartbeat) refers to sonar.o(i.sonar_trigger) for sonar_trigger
    sonar.o(i.sonar_heartbeat) refers to boarddrv.o(i.getms) for getms
    sonar.o(i.sonar_heartbeat) refers to stm32f10x_tim.o(i.TIM_Cmd) for TIM_Cmd
    sonar.o(i.sonar_heartbeat) refers to sonar.o(i.sonar_shutdown) for sonar_shutdown
    sonar.o(i.sonar_heartbeat) refers to sonar.o(.data) for g_sonar_ch
    sonar.o(i.sonar_heartbeat) refers to sonar.o(.bss) for g_sonar
    sonar.o(i.sonar_init) refers to sonar.o(i.pinMode) for pinMode
    sonar.o(i.sonar_init) refers to sonar.o(i.SONAR_TRIG) for SONAR_TRIG
    sonar.o(i.sonar_init) refers to memseta.o(.text) for __aeabi_memclr4
    sonar.o(i.sonar_init) refers to sonar.o(.constdata) for g_sonar_cfg
    sonar.o(i.sonar_init) refers to sonar.o(.bss) for g_sonar
    sonar.o(i.sonar_shutdown) refers to sonar.o(i.SONAR_TRIG) for SONAR_TRIG
    sonar.o(i.sonar_shutdown) refers to exti.o(i.exti_unreg_callback) for exti_unreg_callback
    sonar.o(i.sonar_shutdown) refers to sonar.o(.constdata) for g_sonar_cfg
    sonar.o(i.sonar_trigger) refers to sonar.o(i.SONAR_TRIG) for SONAR_TRIG
    sonar.o(i.sonar_trigger) refers to softdelay.o(i._delay_us) for _delay_us
    sonar.o(i.sonar_trigger) refers to stm32f10x_gpio.o(i.GPIO_EXTILineConfig) for GPIO_EXTILineConfig
    sonar.o(i.sonar_trigger) refers to exti.o(i.exti_reg_callback) for exti_reg_callback
    sonar.o(i.sonar_trigger) refers to sonar.o(.constdata) for g_sonar_cfg
    sonar.o(i.sonar_trigger) refers to sonar.o(i.sonar_exti_cb) for sonar_exti_cb
    protocol.o(i.GetChipID) refers to protocol.o(.bss) for _ID
    protocol.o(i.ReceiveData) refers to crc.o(i.Get_Crc8) for Get_Crc8
    protocol.o(i.ReceiveData) refers to motor.o(i.set_walkingmotor_speed) for set_walkingmotor_speed
    protocol.o(i.ReceiveData) refers to protocol.o(i.SendData) for SendData
    protocol.o(i.ReceiveData) refers to usart.o(.data) for USART3_RX_STA
    protocol.o(i.ReceiveData) refers to usart.o(.bss) for USART3_RX_BUF
    protocol.o(i.ReceiveData) refers to protocol.o(.data) for receive_header
    protocol.o(i.ReceiveData) refers to protocol.o(.constdata) for header
    protocol.o(i.SendData) refers to motor.o(i.get_walkingmotor_lspeed_mm) for get_walkingmotor_lspeed_mm
    protocol.o(i.SendData) refers to motor.o(i.get_walkingmotor_rspeed_mm) for get_walkingmotor_rspeed_mm
    protocol.o(i.SendData) refers to sonar.o(i.sonar_get) for sonar_get
    protocol.o(i.SendData) refers to ffltui.o(.text) for __aeabi_ui2f
    protocol.o(i.SendData) refers to battery.o(i.get_electricity) for get_electricity
    protocol.o(i.SendData) refers to battery.o(i.get_electricitypercentage) for get_electricitypercentage
    protocol.o(i.SendData) refers to fflti.o(.text) for __aeabi_i2f
    protocol.o(i.SendData) refers to fdiv.o(.text) for __aeabi_fdiv
    protocol.o(i.SendData) refers to crc.o(i.Get_Crc8) for Get_Crc8
    protocol.o(i.SendData) refers to protocol.o(.data) for vel_left
    protocol.o(i.SendData) refers to protocol.o(.constdata) for header
    protocol.o(i.SendData) refers to usart.o(.bss) for send_data
    protocol.o(i.SendData) refers to protocol.o(i.GetChipID) for GetChipID
    protocol.o(i.SendData) refers to stm32f10x_usart.o(i.USART_DMACmd) for USART_DMACmd
    protocol.o(i.SendData) refers to usart.o(i.DMA_Enable) for DMA_Enable
    protocol.o(i.SendData) refers to stm32f10x_dma.o(i.DMA_GetFlagStatus) for DMA_GetFlagStatus
    protocol.o(i.SendData) refers to stm32f10x_dma.o(i.DMA_ClearFlag) for DMA_ClearFlag
    protocol.o(i.SendData) refers to protocol.o(.bss) for _ID
    protocol.o(i._delay_ms) refers to softdelay.o(i._delay_us) for _delay_us
    protocol.o(i.pinMode) refers to stm32f10x_gpio.o(i.GPIO_Init) for GPIO_Init
    mpu6050.o(i.MPU_Get_Accelerometer) refers to mpu6050.o(i.MPU_Read_Len) for MPU_Read_Len
    mpu6050.o(i.MPU_Get_Gyroscope) refers to mpu6050.o(i.MPU_Read_Len) for MPU_Read_Len
    mpu6050.o(i.MPU_Get_Temperature) refers to mpu6050.o(i.MPU_Read_Len) for MPU_Read_Len
    mpu6050.o(i.MPU_Get_Temperature) refers to dflti.o(.text) for __aeabi_i2d
    mpu6050.o(i.MPU_Get_Temperature) refers to ddiv.o(.text) for __aeabi_ddiv
    mpu6050.o(i.MPU_Get_Temperature) refers to dadd.o(.text) for __aeabi_dadd
    mpu6050.o(i.MPU_Get_Temperature) refers to d2f.o(.text) for __aeabi_d2f
    mpu6050.o(i.MPU_Get_Temperature) refers to fmul.o(.text) for __aeabi_fmul
    mpu6050.o(i.MPU_Get_Temperature) refers to ffixi.o(.text) for __aeabi_f2iz
    mpu6050.o(i.MPU_Init) refers to mpuiic.o(i.MPU_IIC_Init) for MPU_IIC_Init
    mpu6050.o(i.MPU_Init) refers to mpu6050.o(i.MPU_Write_Byte) for MPU_Write_Byte
    mpu6050.o(i.MPU_Init) refers to mpu6050.o(i._delay_ms) for _delay_ms
    mpu6050.o(i.MPU_Init) refers to mpu6050.o(i.MPU_Set_Gyro_Fsr) for MPU_Set_Gyro_Fsr
    mpu6050.o(i.MPU_Init) refers to mpu6050.o(i.MPU_Set_Accel_Fsr) for MPU_Set_Accel_Fsr
    mpu6050.o(i.MPU_Init) refers to mpu6050.o(i.MPU_Set_Rate) for MPU_Set_Rate
    mpu6050.o(i.MPU_Init) refers to mpu6050.o(i.MPU_Read_Byte) for MPU_Read_Byte
    mpu6050.o(i.MPU_Read_Byte) refers to mpuiic.o(i.MPU_IIC_Start) for MPU_IIC_Start
    mpu6050.o(i.MPU_Read_Byte) refers to mpuiic.o(i.MPU_IIC_Send_Byte) for MPU_IIC_Send_Byte
    mpu6050.o(i.MPU_Read_Byte) refers to mpuiic.o(i.MPU_IIC_Wait_Ack) for MPU_IIC_Wait_Ack
    mpu6050.o(i.MPU_Read_Byte) refers to mpuiic.o(i.MPU_IIC_Read_Byte) for MPU_IIC_Read_Byte
    mpu6050.o(i.MPU_Read_Byte) refers to mpuiic.o(i.MPU_IIC_Stop) for MPU_IIC_Stop
    mpu6050.o(i.MPU_Read_Len) refers to mpuiic.o(i.MPU_IIC_Start) for MPU_IIC_Start
    mpu6050.o(i.MPU_Read_Len) refers to mpuiic.o(i.MPU_IIC_Send_Byte) for MPU_IIC_Send_Byte
    mpu6050.o(i.MPU_Read_Len) refers to mpuiic.o(i.MPU_IIC_Wait_Ack) for MPU_IIC_Wait_Ack
    mpu6050.o(i.MPU_Read_Len) refers to mpuiic.o(i.MPU_IIC_Stop) for MPU_IIC_Stop
    mpu6050.o(i.MPU_Read_Len) refers to mpuiic.o(i.MPU_IIC_Read_Byte) for MPU_IIC_Read_Byte
    mpu6050.o(i.MPU_Set_Accel_Fsr) refers to mpu6050.o(i.MPU_Write_Byte) for MPU_Write_Byte
    mpu6050.o(i.MPU_Set_Gyro_Fsr) refers to mpu6050.o(i.MPU_Write_Byte) for MPU_Write_Byte
    mpu6050.o(i.MPU_Set_LPF) refers to mpu6050.o(i.MPU_Write_Byte) for MPU_Write_Byte
    mpu6050.o(i.MPU_Set_Rate) refers to mpu6050.o(i.MPU_Write_Byte) for MPU_Write_Byte
    mpu6050.o(i.MPU_Set_Rate) refers to mpu6050.o(i.MPU_Set_LPF) for MPU_Set_LPF
    mpu6050.o(i.MPU_Write_Byte) refers to mpuiic.o(i.MPU_IIC_Start) for MPU_IIC_Start
    mpu6050.o(i.MPU_Write_Byte) refers to mpuiic.o(i.MPU_IIC_Send_Byte) for MPU_IIC_Send_Byte
    mpu6050.o(i.MPU_Write_Byte) refers to mpuiic.o(i.MPU_IIC_Wait_Ack) for MPU_IIC_Wait_Ack
    mpu6050.o(i.MPU_Write_Byte) refers to mpuiic.o(i.MPU_IIC_Stop) for MPU_IIC_Stop
    mpu6050.o(i.MPU_Write_Len) refers to mpuiic.o(i.MPU_IIC_Start) for MPU_IIC_Start
    mpu6050.o(i.MPU_Write_Len) refers to mpuiic.o(i.MPU_IIC_Send_Byte) for MPU_IIC_Send_Byte
    mpu6050.o(i.MPU_Write_Len) refers to mpuiic.o(i.MPU_IIC_Wait_Ack) for MPU_IIC_Wait_Ack
    mpu6050.o(i.MPU_Write_Len) refers to mpuiic.o(i.MPU_IIC_Stop) for MPU_IIC_Stop
    mpu6050.o(i._delay_ms) refers to softdelay.o(i._delay_us) for _delay_us
    mpu6050.o(i.pinMode) refers to stm32f10x_gpio.o(i.GPIO_Init) for GPIO_Init
    mpuiic.o(i.MPU_IIC_Ack) refers to mpuiic.o(i.MPU_IIC_Delay) for MPU_IIC_Delay
    mpuiic.o(i.MPU_IIC_Delay) refers to softdelay.o(i._delay_us) for _delay_us
    mpuiic.o(i.MPU_IIC_Init) refers to stm32f10x_rcc.o(i.RCC_APB2PeriphClockCmd) for RCC_APB2PeriphClockCmd
    mpuiic.o(i.MPU_IIC_Init) refers to stm32f10x_rcc.o(i.RCC_APB1PeriphClockCmd) for RCC_APB1PeriphClockCmd
    mpuiic.o(i.MPU_IIC_Init) refers to stm32f10x_gpio.o(i.GPIO_Init) for GPIO_Init
    mpuiic.o(i.MPU_IIC_Init) refers to stm32f10x_gpio.o(i.GPIO_SetBits) for GPIO_SetBits
    mpuiic.o(i.MPU_IIC_NAck) refers to mpuiic.o(i.MPU_IIC_Delay) for MPU_IIC_Delay
    mpuiic.o(i.MPU_IIC_Read_Byte) refers to mpuiic.o(i.MPU_IIC_Delay) for MPU_IIC_Delay
    mpuiic.o(i.MPU_IIC_Read_Byte) refers to mpuiic.o(i.MPU_IIC_NAck) for MPU_IIC_NAck
    mpuiic.o(i.MPU_IIC_Read_Byte) refers to mpuiic.o(i.MPU_IIC_Ack) for MPU_IIC_Ack
    mpuiic.o(i.MPU_IIC_Send_Byte) refers to mpuiic.o(i.MPU_IIC_Delay) for MPU_IIC_Delay
    mpuiic.o(i.MPU_IIC_Start) refers to mpuiic.o(i.MPU_IIC_Delay) for MPU_IIC_Delay
    mpuiic.o(i.MPU_IIC_Stop) refers to mpuiic.o(i.MPU_IIC_Delay) for MPU_IIC_Delay
    mpuiic.o(i.MPU_IIC_Wait_Ack) refers to mpuiic.o(i.MPU_IIC_Delay) for MPU_IIC_Delay
    mpuiic.o(i.MPU_IIC_Wait_Ack) refers to mpuiic.o(i.MPU_IIC_Stop) for MPU_IIC_Stop
    mpuiic.o(i._delay_ms) refers to softdelay.o(i._delay_us) for _delay_us
    mpuiic.o(i.pinMode) refers to stm32f10x_gpio.o(i.GPIO_Init) for GPIO_Init
    inv_mpu.o(i._delay_ms) refers to softdelay.o(i._delay_us) for _delay_us
    inv_mpu.o(i.accel_self_test) refers to inv_mpu.o(i.get_accel_prod_shift) for get_accel_prod_shift
    inv_mpu.o(i.accel_self_test) refers to fflti.o(.text) for __aeabi_i2f
    inv_mpu.o(i.accel_self_test) refers to fdiv.o(.text) for __aeabi_fdiv
    inv_mpu.o(i.accel_self_test) refers to cfcmple.o(.text) for __aeabi_cfcmpeq
    inv_mpu.o(i.accel_self_test) refers to fadd.o(.text) for __aeabi_fsub
    inv_mpu.o(i.accel_self_test) refers to cfrcmple.o(.text) for __aeabi_cfrcmple
    inv_mpu.o(i.accel_self_test) refers to inv_mpu.o(.constdata) for test
    inv_mpu.o(i.get_accel_prod_shift) refers to mpu6050.o(i.MPU_Read_Len) for MPU_Read_Len
    inv_mpu.o(i.get_accel_prod_shift) refers to fmul.o(.text) for __aeabi_fmul
    inv_mpu.o(i.get_accel_prod_shift) refers to inv_mpu.o(.data) for st
    inv_mpu.o(i.get_st_biases) refers to mpu6050.o(i.MPU_Write_Len) for MPU_Write_Len
    inv_mpu.o(i.get_st_biases) refers to inv_mpu.o(i._delay_ms) for _delay_ms
    inv_mpu.o(i.get_st_biases) refers to mpu6050.o(i.MPU_Read_Len) for MPU_Read_Len
    inv_mpu.o(i.get_st_biases) refers to ldiv.o(.text) for __aeabi_ldivmod
    inv_mpu.o(i.get_st_biases) refers to inv_mpu.o(.data) for st
    inv_mpu.o(i.get_st_biases) refers to inv_mpu.o(.constdata) for test
    inv_mpu.o(i.gyro_self_test) refers to mpu6050.o(i.MPU_Read_Len) for MPU_Read_Len
    inv_mpu.o(i.gyro_self_test) refers to fflti.o(.text) for __aeabi_i2f
    inv_mpu.o(i.gyro_self_test) refers to fdiv.o(.text) for __aeabi_fdiv
    inv_mpu.o(i.gyro_self_test) refers to ffltui.o(.text) for __aeabi_ui2f
    inv_mpu.o(i.gyro_self_test) refers to fmul.o(.text) for __aeabi_fmul
    inv_mpu.o(i.gyro_self_test) refers to fadd.o(.text) for __aeabi_fsub
    inv_mpu.o(i.gyro_self_test) refers to cfrcmple.o(.text) for __aeabi_cfrcmple
    inv_mpu.o(i.gyro_self_test) refers to cfcmple.o(.text) for __aeabi_cfcmple
    inv_mpu.o(i.gyro_self_test) refers to inv_mpu.o(.data) for st
    inv_mpu.o(i.gyro_self_test) refers to inv_mpu.o(.constdata) for test
    inv_mpu.o(i.inv_orientation_matrix_to_scalar) refers to inv_mpu.o(i.inv_row_2_scale) for inv_row_2_scale
    inv_mpu.o(i.mpu_configure_fifo) refers to inv_mpu.o(i.set_int_enable) for set_int_enable
    inv_mpu.o(i.mpu_configure_fifo) refers to inv_mpu.o(i.mpu_reset_fifo) for mpu_reset_fifo
    inv_mpu.o(i.mpu_configure_fifo) refers to inv_mpu.o(.data) for st
    inv_mpu.o(i.mpu_dmp_get_Quaternion) refers to inv_mpu_dmp_motion_driver.o(i.dmp_read_fifo) for dmp_read_fifo
    inv_mpu.o(i.mpu_dmp_get_Quaternion) refers to fflti.o(.text) for __aeabi_i2f
    inv_mpu.o(i.mpu_dmp_get_Quaternion) refers to fdiv.o(.text) for __aeabi_fdiv
    inv_mpu.o(i.mpu_dmp_get_data) refers to inv_mpu_dmp_motion_driver.o(i.dmp_read_fifo) for dmp_read_fifo
    inv_mpu.o(i.mpu_dmp_get_data) refers to fflti.o(.text) for __aeabi_i2f
    inv_mpu.o(i.mpu_dmp_get_data) refers to fdiv.o(.text) for __aeabi_fdiv
    inv_mpu.o(i.mpu_dmp_get_data) refers to fmul.o(.text) for __aeabi_fmul
    inv_mpu.o(i.mpu_dmp_get_data) refers to fadd.o(.text) for __aeabi_fadd
    inv_mpu.o(i.mpu_dmp_get_data) refers to f2d.o(.text) for __aeabi_f2d
    inv_mpu.o(i.mpu_dmp_get_data) refers to asin.o(i.asin) for asin
    inv_mpu.o(i.mpu_dmp_get_data) refers to dmul.o(.text) for __aeabi_dmul
    inv_mpu.o(i.mpu_dmp_get_data) refers to d2f.o(.text) for __aeabi_d2f
    inv_mpu.o(i.mpu_dmp_get_data) refers to atan2.o(i.atan2) for atan2
    inv_mpu.o(i.mpu_dmp_init) refers to mpuiic.o(i.MPU_IIC_Init) for MPU_IIC_Init
    inv_mpu.o(i.mpu_dmp_init) refers to inv_mpu.o(i.mpu_init) for mpu_init
    inv_mpu.o(i.mpu_dmp_init) refers to inv_mpu.o(i.mpu_set_sensors) for mpu_set_sensors
    inv_mpu.o(i.mpu_dmp_init) refers to inv_mpu.o(i.mpu_configure_fifo) for mpu_configure_fifo
    inv_mpu.o(i.mpu_dmp_init) refers to inv_mpu.o(i.mpu_set_sample_rate) for mpu_set_sample_rate
    inv_mpu.o(i.mpu_dmp_init) refers to inv_mpu_dmp_motion_driver.o(i.dmp_load_motion_driver_firmware) for dmp_load_motion_driver_firmware
    inv_mpu.o(i.mpu_dmp_init) refers to inv_mpu.o(i.inv_orientation_matrix_to_scalar) for inv_orientation_matrix_to_scalar
    inv_mpu.o(i.mpu_dmp_init) refers to inv_mpu_dmp_motion_driver.o(i.dmp_set_orientation) for dmp_set_orientation
    inv_mpu.o(i.mpu_dmp_init) refers to inv_mpu_dmp_motion_driver.o(i.dmp_enable_feature) for dmp_enable_feature
    inv_mpu.o(i.mpu_dmp_init) refers to inv_mpu_dmp_motion_driver.o(i.dmp_set_fifo_rate) for dmp_set_fifo_rate
    inv_mpu.o(i.mpu_dmp_init) refers to inv_mpu.o(i.run_self_test) for run_self_test
    inv_mpu.o(i.mpu_dmp_init) refers to inv_mpu.o(i.mpu_set_dmp_state) for mpu_set_dmp_state
    inv_mpu.o(i.mpu_dmp_init) refers to inv_mpu.o(.data) for gyro_orientation
    inv_mpu.o(i.mpu_get_accel_fsr) refers to inv_mpu.o(.data) for st
    inv_mpu.o(i.mpu_get_accel_reg) refers to mpu6050.o(i.MPU_Read_Len) for MPU_Read_Len
    inv_mpu.o(i.mpu_get_accel_reg) refers to inv_mpu.o(i.mget_ms) for mget_ms
    inv_mpu.o(i.mpu_get_accel_reg) refers to inv_mpu.o(.data) for st
    inv_mpu.o(i.mpu_get_accel_sens) refers to inv_mpu.o(.data) for st
    inv_mpu.o(i.mpu_get_dmp_state) refers to inv_mpu.o(.data) for st
    inv_mpu.o(i.mpu_get_fifo_config) refers to inv_mpu.o(.data) for st
    inv_mpu.o(i.mpu_get_gyro_fsr) refers to inv_mpu.o(.data) for st
    inv_mpu.o(i.mpu_get_gyro_reg) refers to mpu6050.o(i.MPU_Read_Len) for MPU_Read_Len
    inv_mpu.o(i.mpu_get_gyro_reg) refers to inv_mpu.o(i.mget_ms) for mget_ms
    inv_mpu.o(i.mpu_get_gyro_reg) refers to inv_mpu.o(.data) for st
    inv_mpu.o(i.mpu_get_gyro_sens) refers to inv_mpu.o(.data) for st
    inv_mpu.o(i.mpu_get_int_status) refers to mpu6050.o(i.MPU_Read_Len) for MPU_Read_Len
    inv_mpu.o(i.mpu_get_int_status) refers to inv_mpu.o(.data) for st
    inv_mpu.o(i.mpu_get_lpf) refers to inv_mpu.o(.data) for st
    inv_mpu.o(i.mpu_get_power_state) refers to inv_mpu.o(.data) for st
    inv_mpu.o(i.mpu_get_sample_rate) refers to inv_mpu.o(.data) for st
    inv_mpu.o(i.mpu_get_temperature) refers to mpu6050.o(i.MPU_Read_Len) for MPU_Read_Len
    inv_mpu.o(i.mpu_get_temperature) refers to inv_mpu.o(i.mget_ms) for mget_ms
    inv_mpu.o(i.mpu_get_temperature) refers to ffltui.o(.text) for __aeabi_ui2f
    inv_mpu.o(i.mpu_get_temperature) refers to fflti.o(.text) for __aeabi_i2f
    inv_mpu.o(i.mpu_get_temperature) refers to fadd.o(.text) for __aeabi_fsub
    inv_mpu.o(i.mpu_get_temperature) refers to fdiv.o(.text) for __aeabi_fdiv
    inv_mpu.o(i.mpu_get_temperature) refers to fmul.o(.text) for __aeabi_fmul
    inv_mpu.o(i.mpu_get_temperature) refers to ffixi.o(.text) for __aeabi_f2iz
    inv_mpu.o(i.mpu_get_temperature) refers to inv_mpu.o(.data) for st
    inv_mpu.o(i.mpu_init) refers to mpu6050.o(i.MPU_Write_Len) for MPU_Write_Len
    inv_mpu.o(i.mpu_init) refers to inv_mpu.o(i._delay_ms) for _delay_ms
    inv_mpu.o(i.mpu_init) refers to mpu6050.o(i.MPU_Read_Len) for MPU_Read_Len
    inv_mpu.o(i.mpu_init) refers to printf8.o(i.__0printf$8) for __2printf
    inv_mpu.o(i.mpu_init) refers to inv_mpu.o(i.mpu_set_gyro_fsr) for mpu_set_gyro_fsr
    inv_mpu.o(i.mpu_init) refers to inv_mpu.o(i.mpu_set_accel_fsr) for mpu_set_accel_fsr
    inv_mpu.o(i.mpu_init) refers to inv_mpu.o(i.mpu_set_lpf) for mpu_set_lpf
    inv_mpu.o(i.mpu_init) refers to inv_mpu.o(i.mpu_set_sample_rate) for mpu_set_sample_rate
    inv_mpu.o(i.mpu_init) refers to inv_mpu.o(i.mpu_configure_fifo) for mpu_configure_fifo
    inv_mpu.o(i.mpu_init) refers to inv_mpu.o(i.mpu_set_bypass) for mpu_set_bypass
    inv_mpu.o(i.mpu_init) refers to inv_mpu.o(i.mpu_set_sensors) for mpu_set_sensors
    inv_mpu.o(i.mpu_init) refers to inv_mpu.o(.data) for st
    inv_mpu.o(i.mpu_init) refers to inv_mpu.o(.conststring) for .conststring
    inv_mpu.o(i.mpu_load_firmware) refers to inv_mpu.o(i.mpu_write_mem) for mpu_write_mem
    inv_mpu.o(i.mpu_load_firmware) refers to inv_mpu.o(i.mpu_read_mem) for mpu_read_mem
    inv_mpu.o(i.mpu_load_firmware) refers to memcmp.o(.text) for memcmp
    inv_mpu.o(i.mpu_load_firmware) refers to mpu6050.o(i.MPU_Write_Len) for MPU_Write_Len
    inv_mpu.o(i.mpu_load_firmware) refers to inv_mpu.o(.data) for st
    inv_mpu.o(i.mpu_lp_accel_mode) refers to inv_mpu.o(i.mpu_set_int_latched) for mpu_set_int_latched
    inv_mpu.o(i.mpu_lp_accel_mode) refers to mpu6050.o(i.MPU_Write_Len) for MPU_Write_Len
    inv_mpu.o(i.mpu_lp_accel_mode) refers to inv_mpu.o(i.mpu_set_lpf) for mpu_set_lpf
    inv_mpu.o(i.mpu_lp_accel_mode) refers to inv_mpu.o(i.mpu_configure_fifo) for mpu_configure_fifo
    inv_mpu.o(i.mpu_lp_accel_mode) refers to inv_mpu.o(.data) for st
    inv_mpu.o(i.mpu_lp_motion_interrupt) refers to inv_mpu.o(i.mpu_set_dmp_state) for mpu_set_dmp_state
    inv_mpu.o(i.mpu_lp_motion_interrupt) refers to inv_mpu.o(i.mpu_get_gyro_fsr) for mpu_get_gyro_fsr
    inv_mpu.o(i.mpu_lp_motion_interrupt) refers to inv_mpu.o(i.mpu_get_accel_fsr) for mpu_get_accel_fsr
    inv_mpu.o(i.mpu_lp_motion_interrupt) refers to inv_mpu.o(i.mpu_get_lpf) for mpu_get_lpf
    inv_mpu.o(i.mpu_lp_motion_interrupt) refers to inv_mpu.o(i.mpu_get_sample_rate) for mpu_get_sample_rate
    inv_mpu.o(i.mpu_lp_motion_interrupt) refers to inv_mpu.o(i.mpu_get_fifo_config) for mpu_get_fifo_config
    inv_mpu.o(i.mpu_lp_motion_interrupt) refers to inv_mpu.o(i.set_int_enable) for set_int_enable
    inv_mpu.o(i.mpu_lp_motion_interrupt) refers to inv_mpu.o(i.mpu_lp_accel_mode) for mpu_lp_accel_mode
    inv_mpu.o(i.mpu_lp_motion_interrupt) refers to mpu6050.o(i.MPU_Write_Len) for MPU_Write_Len
    inv_mpu.o(i.mpu_lp_motion_interrupt) refers to inv_mpu.o(i._delay_ms) for _delay_ms
    inv_mpu.o(i.mpu_lp_motion_interrupt) refers to inv_mpu.o(i.mpu_set_sensors) for mpu_set_sensors
    inv_mpu.o(i.mpu_lp_motion_interrupt) refers to inv_mpu.o(i.mpu_set_gyro_fsr) for mpu_set_gyro_fsr
    inv_mpu.o(i.mpu_lp_motion_interrupt) refers to inv_mpu.o(i.mpu_set_accel_fsr) for mpu_set_accel_fsr
    inv_mpu.o(i.mpu_lp_motion_interrupt) refers to inv_mpu.o(i.mpu_set_lpf) for mpu_set_lpf
    inv_mpu.o(i.mpu_lp_motion_interrupt) refers to inv_mpu.o(i.mpu_set_sample_rate) for mpu_set_sample_rate
    inv_mpu.o(i.mpu_lp_motion_interrupt) refers to inv_mpu.o(i.mpu_configure_fifo) for mpu_configure_fifo
    inv_mpu.o(i.mpu_lp_motion_interrupt) refers to inv_mpu.o(.data) for st
    inv_mpu.o(i.mpu_read_fifo) refers to mpu6050.o(i.MPU_Read_Len) for MPU_Read_Len
    inv_mpu.o(i.mpu_read_fifo) refers to inv_mpu.o(i.mpu_reset_fifo) for mpu_reset_fifo
    inv_mpu.o(i.mpu_read_fifo) refers to inv_mpu.o(i.mget_ms) for mget_ms
    inv_mpu.o(i.mpu_read_fifo) refers to inv_mpu.o(.data) for st
    inv_mpu.o(i.mpu_read_fifo_stream) refers to mpu6050.o(i.MPU_Read_Len) for MPU_Read_Len
    inv_mpu.o(i.mpu_read_fifo_stream) refers to inv_mpu.o(i.mpu_reset_fifo) for mpu_reset_fifo
    inv_mpu.o(i.mpu_read_fifo_stream) refers to inv_mpu.o(.data) for st
    inv_mpu.o(i.mpu_read_mem) refers to mpu6050.o(i.MPU_Write_Len) for MPU_Write_Len
    inv_mpu.o(i.mpu_read_mem) refers to mpu6050.o(i.MPU_Read_Len) for MPU_Read_Len
    inv_mpu.o(i.mpu_read_mem) refers to inv_mpu.o(.data) for st
    inv_mpu.o(i.mpu_read_reg) refers to mpu6050.o(i.MPU_Read_Len) for MPU_Read_Len
    inv_mpu.o(i.mpu_read_reg) refers to inv_mpu.o(.data) for st
    inv_mpu.o(i.mpu_reg_dump) refers to mpu6050.o(i.MPU_Read_Len) for MPU_Read_Len
    inv_mpu.o(i.mpu_reg_dump) refers to printf8.o(i.__0printf$8) for __2printf
    inv_mpu.o(i.mpu_reg_dump) refers to inv_mpu.o(.data) for st
    inv_mpu.o(i.mpu_reset_fifo) refers to mpu6050.o(i.MPU_Write_Len) for MPU_Write_Len
    inv_mpu.o(i.mpu_reset_fifo) refers to inv_mpu.o(i._delay_ms) for _delay_ms
    inv_mpu.o(i.mpu_reset_fifo) refers to inv_mpu.o(.data) for st
    inv_mpu.o(i.mpu_run_self_test) refers to inv_mpu.o(i.mpu_set_dmp_state) for mpu_set_dmp_state
    inv_mpu.o(i.mpu_run_self_test) refers to inv_mpu.o(i.mpu_get_gyro_fsr) for mpu_get_gyro_fsr
    inv_mpu.o(i.mpu_run_self_test) refers to inv_mpu.o(i.mpu_get_accel_fsr) for mpu_get_accel_fsr
    inv_mpu.o(i.mpu_run_self_test) refers to inv_mpu.o(i.mpu_get_lpf) for mpu_get_lpf
    inv_mpu.o(i.mpu_run_self_test) refers to inv_mpu.o(i.mpu_get_sample_rate) for mpu_get_sample_rate
    inv_mpu.o(i.mpu_run_self_test) refers to inv_mpu.o(i.mpu_get_fifo_config) for mpu_get_fifo_config
    inv_mpu.o(i.mpu_run_self_test) refers to inv_mpu.o(i.get_st_biases) for get_st_biases
    inv_mpu.o(i.mpu_run_self_test) refers to inv_mpu.o(i.accel_self_test) for accel_self_test
    inv_mpu.o(i.mpu_run_self_test) refers to inv_mpu.o(i.gyro_self_test) for gyro_self_test
    inv_mpu.o(i.mpu_run_self_test) refers to inv_mpu.o(i.mpu_set_gyro_fsr) for mpu_set_gyro_fsr
    inv_mpu.o(i.mpu_run_self_test) refers to inv_mpu.o(i.mpu_set_accel_fsr) for mpu_set_accel_fsr
    inv_mpu.o(i.mpu_run_self_test) refers to inv_mpu.o(i.mpu_set_lpf) for mpu_set_lpf
    inv_mpu.o(i.mpu_run_self_test) refers to inv_mpu.o(i.mpu_set_sample_rate) for mpu_set_sample_rate
    inv_mpu.o(i.mpu_run_self_test) refers to inv_mpu.o(i.mpu_set_sensors) for mpu_set_sensors
    inv_mpu.o(i.mpu_run_self_test) refers to inv_mpu.o(i.mpu_configure_fifo) for mpu_configure_fifo
    inv_mpu.o(i.mpu_run_self_test) refers to inv_mpu.o(.data) for st
    inv_mpu.o(i.mpu_set_accel_bias) refers to mpu6050.o(i.MPU_Read_Len) for MPU_Read_Len
    inv_mpu.o(i.mpu_set_accel_bias) refers to mpu6050.o(i.MPU_Write_Len) for MPU_Write_Len
    inv_mpu.o(i.mpu_set_accel_bias) refers to inv_mpu.o(.data) for st
    inv_mpu.o(i.mpu_set_accel_fsr) refers to mpu6050.o(i.MPU_Write_Len) for MPU_Write_Len
    inv_mpu.o(i.mpu_set_accel_fsr) refers to inv_mpu.o(.data) for st
    inv_mpu.o(i.mpu_set_bypass) refers to mpu6050.o(i.MPU_Read_Len) for MPU_Read_Len
    inv_mpu.o(i.mpu_set_bypass) refers to mpu6050.o(i.MPU_Write_Len) for MPU_Write_Len
    inv_mpu.o(i.mpu_set_bypass) refers to inv_mpu.o(i._delay_ms) for _delay_ms
    inv_mpu.o(i.mpu_set_bypass) refers to inv_mpu.o(.data) for st
    inv_mpu.o(i.mpu_set_dmp_state) refers to inv_mpu.o(i.set_int_enable) for set_int_enable
    inv_mpu.o(i.mpu_set_dmp_state) refers to inv_mpu.o(i.mpu_set_bypass) for mpu_set_bypass
    inv_mpu.o(i.mpu_set_dmp_state) refers to inv_mpu.o(i.mpu_set_sample_rate) for mpu_set_sample_rate
    inv_mpu.o(i.mpu_set_dmp_state) refers to mpu6050.o(i.MPU_Write_Len) for MPU_Write_Len
    inv_mpu.o(i.mpu_set_dmp_state) refers to inv_mpu.o(i.mpu_reset_fifo) for mpu_reset_fifo
    inv_mpu.o(i.mpu_set_dmp_state) refers to inv_mpu.o(.data) for st
    inv_mpu.o(i.mpu_set_gyro_fsr) refers to mpu6050.o(i.MPU_Write_Len) for MPU_Write_Len
    inv_mpu.o(i.mpu_set_gyro_fsr) refers to inv_mpu.o(.data) for st
    inv_mpu.o(i.mpu_set_int_latched) refers to mpu6050.o(i.MPU_Write_Len) for MPU_Write_Len
    inv_mpu.o(i.mpu_set_int_latched) refers to inv_mpu.o(.data) for st
    inv_mpu.o(i.mpu_set_int_level) refers to inv_mpu.o(.data) for st
    inv_mpu.o(i.mpu_set_lpf) refers to mpu6050.o(i.MPU_Write_Len) for MPU_Write_Len
    inv_mpu.o(i.mpu_set_lpf) refers to inv_mpu.o(.data) for st
    inv_mpu.o(i.mpu_set_sample_rate) refers to inv_mpu.o(i.mpu_lp_accel_mode) for mpu_lp_accel_mode
    inv_mpu.o(i.mpu_set_sample_rate) refers to mpu6050.o(i.MPU_Write_Len) for MPU_Write_Len
    inv_mpu.o(i.mpu_set_sample_rate) refers to inv_mpu.o(i.mpu_set_lpf) for mpu_set_lpf
    inv_mpu.o(i.mpu_set_sample_rate) refers to inv_mpu.o(.data) for st
    inv_mpu.o(i.mpu_set_sensors) refers to mpu6050.o(i.MPU_Write_Len) for MPU_Write_Len
    inv_mpu.o(i.mpu_set_sensors) refers to inv_mpu.o(i.mpu_set_int_latched) for mpu_set_int_latched
    inv_mpu.o(i.mpu_set_sensors) refers to inv_mpu.o(i._delay_ms) for _delay_ms
    inv_mpu.o(i.mpu_set_sensors) refers to inv_mpu.o(.data) for st
    inv_mpu.o(i.mpu_write_mem) refers to mpu6050.o(i.MPU_Write_Len) for MPU_Write_Len
    inv_mpu.o(i.mpu_write_mem) refers to inv_mpu.o(.data) for st
    inv_mpu.o(i.pinMode) refers to stm32f10x_gpio.o(i.GPIO_Init) for GPIO_Init
    inv_mpu.o(i.run_self_test) refers to inv_mpu.o(i.mpu_run_self_test) for mpu_run_self_test
    inv_mpu.o(i.run_self_test) refers to inv_mpu.o(i.mpu_get_gyro_sens) for mpu_get_gyro_sens
    inv_mpu.o(i.run_self_test) refers to fflti.o(.text) for __aeabi_i2f
    inv_mpu.o(i.run_self_test) refers to fmul.o(.text) for __aeabi_fmul
    inv_mpu.o(i.run_self_test) refers to ffixi.o(.text) for __aeabi_f2iz
    inv_mpu.o(i.run_self_test) refers to inv_mpu_dmp_motion_driver.o(i.dmp_set_gyro_bias) for dmp_set_gyro_bias
    inv_mpu.o(i.run_self_test) refers to inv_mpu.o(i.mpu_get_accel_sens) for mpu_get_accel_sens
    inv_mpu.o(i.run_self_test) refers to inv_mpu_dmp_motion_driver.o(i.dmp_set_accel_bias) for dmp_set_accel_bias
    inv_mpu.o(i.set_int_enable) refers to mpu6050.o(i.MPU_Write_Len) for MPU_Write_Len
    inv_mpu.o(i.set_int_enable) refers to inv_mpu.o(.data) for st
    inv_mpu.o(.data) refers to inv_mpu.o(.constdata) for reg
    inv_mpu_dmp_motion_driver.o(i.decode_gesture) refers to inv_mpu_dmp_motion_driver.o(.bss) for dmp
    inv_mpu_dmp_motion_driver.o(i.dmp_enable_6x_lp_quat) refers to memseta.o(.text) for __aeabi_memset
    inv_mpu_dmp_motion_driver.o(i.dmp_enable_6x_lp_quat) refers to inv_mpu.o(i.mpu_write_mem) for mpu_write_mem
    inv_mpu_dmp_motion_driver.o(i.dmp_enable_6x_lp_quat) refers to inv_mpu.o(i.mpu_reset_fifo) for mpu_reset_fifo
    inv_mpu_dmp_motion_driver.o(i.dmp_enable_feature) refers to inv_mpu.o(i.mpu_write_mem) for mpu_write_mem
    inv_mpu_dmp_motion_driver.o(i.dmp_enable_feature) refers to inv_mpu_dmp_motion_driver.o(i.dmp_enable_gyro_cal) for dmp_enable_gyro_cal
    inv_mpu_dmp_motion_driver.o(i.dmp_enable_feature) refers to inv_mpu_dmp_motion_driver.o(i.dmp_set_tap_thresh) for dmp_set_tap_thresh
    inv_mpu_dmp_motion_driver.o(i.dmp_enable_feature) refers to inv_mpu_dmp_motion_driver.o(i.dmp_set_tap_axes) for dmp_set_tap_axes
    inv_mpu_dmp_motion_driver.o(i.dmp_enable_feature) refers to inv_mpu_dmp_motion_driver.o(i.dmp_set_tap_count) for dmp_set_tap_count
    inv_mpu_dmp_motion_driver.o(i.dmp_enable_feature) refers to inv_mpu_dmp_motion_driver.o(i.dmp_set_tap_time) for dmp_set_tap_time
    inv_mpu_dmp_motion_driver.o(i.dmp_enable_feature) refers to inv_mpu_dmp_motion_driver.o(i.dmp_set_tap_time_multi) for dmp_set_tap_time_multi
    inv_mpu_dmp_motion_driver.o(i.dmp_enable_feature) refers to inv_mpu_dmp_motion_driver.o(i.dmp_set_shake_reject_thresh) for dmp_set_shake_reject_thresh
    inv_mpu_dmp_motion_driver.o(i.dmp_enable_feature) refers to inv_mpu_dmp_motion_driver.o(i.dmp_set_shake_reject_time) for dmp_set_shake_reject_time
    inv_mpu_dmp_motion_driver.o(i.dmp_enable_feature) refers to inv_mpu_dmp_motion_driver.o(i.dmp_set_shake_reject_timeout) for dmp_set_shake_reject_timeout
    inv_mpu_dmp_motion_driver.o(i.dmp_enable_feature) refers to inv_mpu_dmp_motion_driver.o(i.dmp_enable_lp_quat) for dmp_enable_lp_quat
    inv_mpu_dmp_motion_driver.o(i.dmp_enable_feature) refers to inv_mpu_dmp_motion_driver.o(i.dmp_enable_6x_lp_quat) for dmp_enable_6x_lp_quat
    inv_mpu_dmp_motion_driver.o(i.dmp_enable_feature) refers to inv_mpu.o(i.mpu_reset_fifo) for mpu_reset_fifo
    inv_mpu_dmp_motion_driver.o(i.dmp_enable_feature) refers to inv_mpu_dmp_motion_driver.o(.bss) for dmp
    inv_mpu_dmp_motion_driver.o(i.dmp_enable_gyro_cal) refers to inv_mpu.o(i.mpu_write_mem) for mpu_write_mem
    inv_mpu_dmp_motion_driver.o(i.dmp_enable_lp_quat) refers to memseta.o(.text) for __aeabi_memset
    inv_mpu_dmp_motion_driver.o(i.dmp_enable_lp_quat) refers to inv_mpu.o(i.mpu_write_mem) for mpu_write_mem
    inv_mpu_dmp_motion_driver.o(i.dmp_enable_lp_quat) refers to inv_mpu.o(i.mpu_reset_fifo) for mpu_reset_fifo
    inv_mpu_dmp_motion_driver.o(i.dmp_get_enabled_features) refers to inv_mpu_dmp_motion_driver.o(.bss) for dmp
    inv_mpu_dmp_motion_driver.o(i.dmp_get_fifo_rate) refers to inv_mpu_dmp_motion_driver.o(.bss) for dmp
    inv_mpu_dmp_motion_driver.o(i.dmp_get_pedometer_step_count) refers to inv_mpu.o(i.mpu_read_mem) for mpu_read_mem
    inv_mpu_dmp_motion_driver.o(i.dmp_get_pedometer_walk_time) refers to inv_mpu.o(i.mpu_read_mem) for mpu_read_mem
    inv_mpu_dmp_motion_driver.o(i.dmp_load_motion_driver_firmware) refers to inv_mpu.o(i.mpu_load_firmware) for mpu_load_firmware
    inv_mpu_dmp_motion_driver.o(i.dmp_load_motion_driver_firmware) refers to inv_mpu_dmp_motion_driver.o(.constdata) for dmp_memory
    inv_mpu_dmp_motion_driver.o(i.dmp_read_fifo) refers to inv_mpu.o(i.mpu_read_fifo_stream) for mpu_read_fifo_stream
    inv_mpu_dmp_motion_driver.o(i.dmp_read_fifo) refers to inv_mpu.o(i.mpu_reset_fifo) for mpu_reset_fifo
    inv_mpu_dmp_motion_driver.o(i.dmp_read_fifo) refers to inv_mpu_dmp_motion_driver.o(i.decode_gesture) for decode_gesture
    inv_mpu_dmp_motion_driver.o(i.dmp_read_fifo) refers to inv_mpu.o(i.mget_ms) for mget_ms
    inv_mpu_dmp_motion_driver.o(i.dmp_read_fifo) refers to inv_mpu_dmp_motion_driver.o(.bss) for dmp
    inv_mpu_dmp_motion_driver.o(i.dmp_register_android_orient_cb) refers to inv_mpu_dmp_motion_driver.o(.bss) for dmp
    inv_mpu_dmp_motion_driver.o(i.dmp_register_tap_cb) refers to inv_mpu_dmp_motion_driver.o(.bss) for dmp
    inv_mpu_dmp_motion_driver.o(i.dmp_set_accel_bias) refers to inv_mpu.o(i.mpu_get_accel_sens) for mpu_get_accel_sens
    inv_mpu_dmp_motion_driver.o(i.dmp_set_accel_bias) refers to inv_mpu.o(i.mpu_write_mem) for mpu_write_mem
    inv_mpu_dmp_motion_driver.o(i.dmp_set_accel_bias) refers to inv_mpu_dmp_motion_driver.o(.bss) for dmp
    inv_mpu_dmp_motion_driver.o(i.dmp_set_fifo_rate) refers to inv_mpu.o(i.mpu_write_mem) for mpu_write_mem
    inv_mpu_dmp_motion_driver.o(i.dmp_set_fifo_rate) refers to inv_mpu_dmp_motion_driver.o(.bss) for dmp
    inv_mpu_dmp_motion_driver.o(i.dmp_set_gyro_bias) refers to inv_mpu.o(i.mpu_write_mem) for mpu_write_mem
    inv_mpu_dmp_motion_driver.o(i.dmp_set_gyro_bias) refers to inv_mpu_dmp_motion_driver.o(.bss) for dmp
    inv_mpu_dmp_motion_driver.o(i.dmp_set_interrupt_mode) refers to inv_mpu.o(i.mpu_write_mem) for mpu_write_mem
    inv_mpu_dmp_motion_driver.o(i.dmp_set_orientation) refers to inv_mpu.o(i.mpu_write_mem) for mpu_write_mem
    inv_mpu_dmp_motion_driver.o(i.dmp_set_orientation) refers to inv_mpu_dmp_motion_driver.o(.bss) for dmp
    inv_mpu_dmp_motion_driver.o(i.dmp_set_pedometer_step_count) refers to inv_mpu.o(i.mpu_write_mem) for mpu_write_mem
    inv_mpu_dmp_motion_driver.o(i.dmp_set_pedometer_walk_time) refers to inv_mpu.o(i.mpu_write_mem) for mpu_write_mem
    inv_mpu_dmp_motion_driver.o(i.dmp_set_shake_reject_thresh) refers to inv_mpu.o(i.mpu_write_mem) for mpu_write_mem
    inv_mpu_dmp_motion_driver.o(i.dmp_set_shake_reject_time) refers to inv_mpu.o(i.mpu_write_mem) for mpu_write_mem
    inv_mpu_dmp_motion_driver.o(i.dmp_set_shake_reject_timeout) refers to inv_mpu.o(i.mpu_write_mem) for mpu_write_mem
    inv_mpu_dmp_motion_driver.o(i.dmp_set_tap_axes) refers to inv_mpu.o(i.mpu_write_mem) for mpu_write_mem
    inv_mpu_dmp_motion_driver.o(i.dmp_set_tap_count) refers to inv_mpu.o(i.mpu_write_mem) for mpu_write_mem
    inv_mpu_dmp_motion_driver.o(i.dmp_set_tap_thresh) refers to ffltui.o(.text) for __aeabi_ui2f
    inv_mpu_dmp_motion_driver.o(i.dmp_set_tap_thresh) refers to fdiv.o(.text) for __aeabi_fdiv
    inv_mpu_dmp_motion_driver.o(i.dmp_set_tap_thresh) refers to inv_mpu.o(i.mpu_get_accel_fsr) for mpu_get_accel_fsr
    inv_mpu_dmp_motion_driver.o(i.dmp_set_tap_thresh) refers to fmul.o(.text) for __aeabi_fmul
    inv_mpu_dmp_motion_driver.o(i.dmp_set_tap_thresh) refers to ffixui.o(.text) for __aeabi_f2uiz
    inv_mpu_dmp_motion_driver.o(i.dmp_set_tap_thresh) refers to inv_mpu.o(i.mpu_write_mem) for mpu_write_mem
    inv_mpu_dmp_motion_driver.o(i.dmp_set_tap_time) refers to inv_mpu.o(i.mpu_write_mem) for mpu_write_mem
    inv_mpu_dmp_motion_driver.o(i.dmp_set_tap_time_multi) refers to inv_mpu.o(i.mpu_write_mem) for mpu_write_mem
    filters.o(i.Kalman_Filter) refers to fadd.o(.text) for __aeabi_fsub
    filters.o(i.Kalman_Filter) refers to fmul.o(.text) for __aeabi_fmul
    filters.o(i.Kalman_Filter) refers to ffltui.o(.text) for __aeabi_ui2f
    filters.o(i.Kalman_Filter) refers to fdiv.o(.text) for __aeabi_fdiv
    filters.o(i.Kalman_Filter) refers to filters.o(.data) for Q_bias
    filters.o(i.Kalman_Filter) refers to filters.o(.bss) for Pdot
    filters.o(i._delay_ms) refers to softdelay.o(i._delay_us) for _delay_us
    filters.o(i.add_to_avg_filter_u32) refers to ldiv.o(.text) for __aeabi_ldivmod
    filters.o(i.pinMode) refers to stm32f10x_gpio.o(i.GPIO_Init) for GPIO_Init
    hwconf.o(i.ADC_Configuration) refers to stm32f10x_dma.o(i.DMA_DeInit) for DMA_DeInit
    hwconf.o(i.ADC_Configuration) refers to stm32f10x_dma.o(i.DMA_Init) for DMA_Init
    hwconf.o(i.ADC_Configuration) refers to stm32f10x_dma.o(i.DMA_Cmd) for DMA_Cmd
    hwconf.o(i.ADC_Configuration) refers to stm32f10x_adc.o(i.ADC_Init) for ADC_Init
    hwconf.o(i.ADC_Configuration) refers to stm32f10x_adc.o(i.ADC_RegularChannelConfig) for ADC_RegularChannelConfig
    hwconf.o(i.ADC_Configuration) refers to stm32f10x_adc.o(i.ADC_DMACmd) for ADC_DMACmd
    hwconf.o(i.ADC_Configuration) refers to stm32f10x_adc.o(i.ADC_Cmd) for ADC_Cmd
    hwconf.o(i.ADC_Configuration) refers to stm32f10x_adc.o(i.ADC_ResetCalibration) for ADC_ResetCalibration
    hwconf.o(i.ADC_Configuration) refers to stm32f10x_adc.o(i.ADC_GetResetCalibrationStatus) for ADC_GetResetCalibrationStatus
    hwconf.o(i.ADC_Configuration) refers to stm32f10x_adc.o(i.ADC_StartCalibration) for ADC_StartCalibration
    hwconf.o(i.ADC_Configuration) refers to stm32f10x_adc.o(i.ADC_GetCalibrationStatus) for ADC_GetCalibrationStatus
    hwconf.o(i.ADC_Configuration) refers to stm32f10x_adc.o(i.ADC_SoftwareStartConvCmd) for ADC_SoftwareStartConvCmd
    hwconf.o(i.ADC_Configuration) refers to hwconf.o(.data) for voltage
    hwconf.o(i.NVIC_Configuration) refers to misc.o(i.NVIC_PriorityGroupConfig) for NVIC_PriorityGroupConfig
    hwconf.o(i.NVIC_Configuration) refers to hwconf.o(i.set_board_systick) for set_board_systick
    hwconf.o(i.NVIC_Configuration) refers to misc.o(i.NVIC_Init) for NVIC_Init
    hwconf.o(i.RCC_Configuration) refers to stm32f10x_rcc.o(i.RCC_ADCCLKConfig) for RCC_ADCCLKConfig
    hwconf.o(i.RCC_Configuration) refers to stm32f10x_rcc.o(i.RCC_AHBPeriphClockCmd) for RCC_AHBPeriphClockCmd
    hwconf.o(i.RCC_Configuration) refers to stm32f10x_rcc.o(i.RCC_APB2PeriphClockCmd) for RCC_APB2PeriphClockCmd
    hwconf.o(i.RCC_Configuration) refers to stm32f10x_rcc.o(i.RCC_APB1PeriphClockCmd) for RCC_APB1PeriphClockCmd
    hwconf.o(i._delay_ms) refers to softdelay.o(i._delay_us) for _delay_us
    hwconf.o(i.init_board) refers to hwconf.o(i.RCC_Configuration) for RCC_Configuration
    hwconf.o(i.init_board) refers to stm32f10x_gpio.o(i.GPIO_PinRemapConfig) for GPIO_PinRemapConfig
    hwconf.o(i.init_board) refers to hwconf.o(i.NVIC_Configuration) for NVIC_Configuration
    hwconf.o(i.init_board) refers to hwconf.o(i.ADC_Configuration) for ADC_Configuration
    hwconf.o(i.pinMode) refers to stm32f10x_gpio.o(i.GPIO_Init) for GPIO_Init
    hwconf.o(i.set_board_systick) refers to softdelay.o(i.softdelay_calibrate) for softdelay_calibrate
    startup_stm32f10x_hd.o(RESET) refers to startup_stm32f10x_hd.o(STACK) for __initial_sp
    startup_stm32f10x_hd.o(RESET) refers to startup_stm32f10x_hd.o(.text) for Reset_Handler
    startup_stm32f10x_hd.o(RESET) refers to stm32f10x_it.o(i.NMI_Handler) for NMI_Handler
    startup_stm32f10x_hd.o(RESET) refers to stm32f10x_it.o(i.HardFault_Handler) for HardFault_Handler
    startup_stm32f10x_hd.o(RESET) refers to stm32f10x_it.o(i.MemManage_Handler) for MemManage_Handler
    startup_stm32f10x_hd.o(RESET) refers to stm32f10x_it.o(i.BusFault_Handler) for BusFault_Handler
    startup_stm32f10x_hd.o(RESET) refers to stm32f10x_it.o(i.UsageFault_Handler) for UsageFault_Handler
    startup_stm32f10x_hd.o(RESET) refers to stm32f10x_it.o(i.SVC_Handler) for SVC_Handler
    startup_stm32f10x_hd.o(RESET) refers to stm32f10x_it.o(i.DebugMon_Handler) for DebugMon_Handler
    startup_stm32f10x_hd.o(RESET) refers to stm32f10x_it.o(i.PendSV_Handler) for PendSV_Handler
    startup_stm32f10x_hd.o(RESET) refers to boarddrv.o(i.SysTick_Handler) for SysTick_Handler
    startup_stm32f10x_hd.o(RESET) refers to exti.o(i.EXTI0_IRQHandler) for EXTI0_IRQHandler
    startup_stm32f10x_hd.o(RESET) refers to exti.o(i.EXTI1_IRQHandler) for EXTI1_IRQHandler
    startup_stm32f10x_hd.o(RESET) refers to exti.o(i.EXTI2_IRQHandler) for EXTI2_IRQHandler
    startup_stm32f10x_hd.o(RESET) refers to exti.o(i.EXTI3_IRQHandler) for EXTI3_IRQHandler
    startup_stm32f10x_hd.o(RESET) refers to exti.o(i.EXTI4_IRQHandler) for EXTI4_IRQHandler
    startup_stm32f10x_hd.o(RESET) refers to exti.o(i.EXTI9_5_IRQHandler) for EXTI9_5_IRQHandler
    startup_stm32f10x_hd.o(RESET) refers to usart.o(i.USART2_IRQHandler) for USART2_IRQHandler
    startup_stm32f10x_hd.o(RESET) refers to usart.o(i.USART3_IRQHandler) for USART3_IRQHandler
    startup_stm32f10x_hd.o(RESET) refers to exti.o(i.EXTI15_10_IRQHandler) for EXTI15_10_IRQHandler
    startup_stm32f10x_hd.o(RESET) refers to usart.o(i.UART4_IRQHandler) for UART4_IRQHandler
    startup_stm32f10x_hd.o(.text) refers to system_stm32f10x.o(i.SystemInit) for SystemInit
    startup_stm32f10x_hd.o(.text) refers to entry.o(.ARM.Collect$$$$00000000) for __main
    system_stm32f10x.o(i.SetSysClock) refers to system_stm32f10x.o(i.SetSysClockTo72) for SetSysClockTo72
    system_stm32f10x.o(i.SystemCoreClockUpdate) refers to system_stm32f10x.o(.data) for SystemCoreClock
    system_stm32f10x.o(i.SystemInit) refers to system_stm32f10x.o(i.SetSysClock) for SetSysClock
    stm32f10x_adc.o(i.ADC_DeInit) refers to stm32f10x_rcc.o(i.RCC_APB2PeriphResetCmd) for RCC_APB2PeriphResetCmd
    stm32f10x_gpio.o(i.GPIO_AFIODeInit) refers to stm32f10x_rcc.o(i.RCC_APB2PeriphResetCmd) for RCC_APB2PeriphResetCmd
    stm32f10x_gpio.o(i.GPIO_DeInit) refers to stm32f10x_rcc.o(i.RCC_APB2PeriphResetCmd) for RCC_APB2PeriphResetCmd
    stm32f10x_i2c.o(i.I2C_DeInit) refers to stm32f10x_rcc.o(i.RCC_APB1PeriphResetCmd) for RCC_APB1PeriphResetCmd
    stm32f10x_i2c.o(i.I2C_Init) refers to stm32f10x_rcc.o(i.RCC_GetClocksFreq) for RCC_GetClocksFreq
    stm32f10x_rcc.o(i.RCC_GetClocksFreq) refers to stm32f10x_rcc.o(.data) for APBAHBPrescTable
    stm32f10x_rcc.o(i.RCC_WaitForHSEStartUp) refers to stm32f10x_rcc.o(i.RCC_GetFlagStatus) for RCC_GetFlagStatus
    stm32f10x_tim.o(i.TIM_DeInit) refers to stm32f10x_rcc.o(i.RCC_APB2PeriphResetCmd) for RCC_APB2PeriphResetCmd
    stm32f10x_tim.o(i.TIM_DeInit) refers to stm32f10x_rcc.o(i.RCC_APB1PeriphResetCmd) for RCC_APB1PeriphResetCmd
    stm32f10x_tim.o(i.TIM_ETRClockMode1Config) refers to stm32f10x_tim.o(i.TIM_ETRConfig) for TIM_ETRConfig
    stm32f10x_tim.o(i.TIM_ETRClockMode2Config) refers to stm32f10x_tim.o(i.TIM_ETRConfig) for TIM_ETRConfig
    stm32f10x_tim.o(i.TIM_ICInit) refers to stm32f10x_tim.o(i.TI1_Config) for TI1_Config
    stm32f10x_tim.o(i.TIM_ICInit) refers to stm32f10x_tim.o(i.TIM_SetIC1Prescaler) for TIM_SetIC1Prescaler
    stm32f10x_tim.o(i.TIM_ICInit) refers to stm32f10x_tim.o(i.TI2_Config) for TI2_Config
    stm32f10x_tim.o(i.TIM_ICInit) refers to stm32f10x_tim.o(i.TIM_SetIC2Prescaler) for TIM_SetIC2Prescaler
    stm32f10x_tim.o(i.TIM_ICInit) refers to stm32f10x_tim.o(i.TI3_Config) for TI3_Config
    stm32f10x_tim.o(i.TIM_ICInit) refers to stm32f10x_tim.o(i.TIM_SetIC3Prescaler) for TIM_SetIC3Prescaler
    stm32f10x_tim.o(i.TIM_ICInit) refers to stm32f10x_tim.o(i.TI4_Config) for TI4_Config
    stm32f10x_tim.o(i.TIM_ICInit) refers to stm32f10x_tim.o(i.TIM_SetIC4Prescaler) for TIM_SetIC4Prescaler
    stm32f10x_tim.o(i.TIM_ITRxExternalClockConfig) refers to stm32f10x_tim.o(i.TIM_SelectInputTrigger) for TIM_SelectInputTrigger
    stm32f10x_tim.o(i.TIM_PWMIConfig) refers to stm32f10x_tim.o(i.TI1_Config) for TI1_Config
    stm32f10x_tim.o(i.TIM_PWMIConfig) refers to stm32f10x_tim.o(i.TIM_SetIC1Prescaler) for TIM_SetIC1Prescaler
    stm32f10x_tim.o(i.TIM_PWMIConfig) refers to stm32f10x_tim.o(i.TI2_Config) for TI2_Config
    stm32f10x_tim.o(i.TIM_PWMIConfig) refers to stm32f10x_tim.o(i.TIM_SetIC2Prescaler) for TIM_SetIC2Prescaler
    stm32f10x_tim.o(i.TIM_TIxExternalClockConfig) refers to stm32f10x_tim.o(i.TI2_Config) for TI2_Config
    stm32f10x_tim.o(i.TIM_TIxExternalClockConfig) refers to stm32f10x_tim.o(i.TI1_Config) for TI1_Config
    stm32f10x_tim.o(i.TIM_TIxExternalClockConfig) refers to stm32f10x_tim.o(i.TIM_SelectInputTrigger) for TIM_SelectInputTrigger
    stm32f10x_usart.o(i.USART_DeInit) refers to stm32f10x_rcc.o(i.RCC_APB2PeriphResetCmd) for RCC_APB2PeriphResetCmd
    stm32f10x_usart.o(i.USART_DeInit) refers to stm32f10x_rcc.o(i.RCC_APB1PeriphResetCmd) for RCC_APB1PeriphResetCmd
    stm32f10x_usart.o(i.USART_Init) refers to stm32f10x_rcc.o(i.RCC_GetClocksFreq) for RCC_GetClocksFreq
    stm32f10x_wwdg.o(i.WWDG_DeInit) refers to stm32f10x_rcc.o(i.RCC_APB1PeriphResetCmd) for RCC_APB1PeriphResetCmd
    asin.o(i.__softfp_asin) refers (Special) to iusefp.o(.text) for __I$use$fp
    asin.o(i.__softfp_asin) refers to asin.o(i.asin) for asin
    asin.o(i.asin) refers (Special) to iusefp.o(.text) for __I$use$fp
    asin.o(i.asin) refers to dunder.o(i.__mathlib_dbl_infnan) for __mathlib_dbl_infnan
    asin.o(i.asin) refers to dmul.o(.text) for __aeabi_dmul
    asin.o(i.asin) refers to dadd.o(.text) for __aeabi_dadd
    asin.o(i.asin) refers to errno.o(i.__set_errno) for __set_errno
    asin.o(i.asin) refers to dunder.o(i.__mathlib_dbl_invalid) for __mathlib_dbl_invalid
    asin.o(i.asin) refers to fpclassify.o(i.__ARM_fpclassify) for __ARM_fpclassify
    asin.o(i.asin) refers to dunder.o(i.__mathlib_dbl_underflow) for __mathlib_dbl_underflow
    asin.o(i.asin) refers to poly.o(i.__kernel_poly) for __kernel_poly
    asin.o(i.asin) refers to ddiv.o(.text) for __aeabi_ddiv
    asin.o(i.asin) refers to dscalb.o(.text) for __ARM_scalbn
    asin.o(i.asin) refers to sqrt.o(i.sqrt) for sqrt
    asin.o(i.asin) refers to asin.o(.constdata) for .constdata
    asin.o(.constdata) refers (Special) to iusefp.o(.text) for __I$use$fp
    asin_x.o(i.____softfp_asin$lsc) refers (Special) to iusefp.o(.text) for __I$use$fp
    asin_x.o(i.____softfp_asin$lsc) refers to asin_x.o(i.__asin$lsc) for __asin$lsc
    asin_x.o(i.__asin$lsc) refers (Special) to iusefp.o(.text) for __I$use$fp
    asin_x.o(i.__asin$lsc) refers to dunder.o(i.__mathlib_dbl_infnan) for __mathlib_dbl_infnan
    asin_x.o(i.__asin$lsc) refers to dmul.o(.text) for __aeabi_dmul
    asin_x.o(i.__asin$lsc) refers to dadd.o(.text) for __aeabi_dadd
    asin_x.o(i.__asin$lsc) refers to errno.o(i.__set_errno) for __set_errno
    asin_x.o(i.__asin$lsc) refers to poly.o(i.__kernel_poly) for __kernel_poly
    asin_x.o(i.__asin$lsc) refers to ddiv.o(.text) for __aeabi_ddiv
    asin_x.o(i.__asin$lsc) refers to dscalb.o(.text) for __ARM_scalbn
    asin_x.o(i.__asin$lsc) refers to sqrt.o(i.sqrt) for sqrt
    asin_x.o(i.__asin$lsc) refers to asin_x.o(.constdata) for .constdata
    asin_x.o(.constdata) refers (Special) to iusefp.o(.text) for __I$use$fp
    atan2.o(i.__softfp_atan2) refers (Special) to iusefp.o(.text) for __I$use$fp
    atan2.o(i.__softfp_atan2) refers to atan2.o(i.atan2) for atan2
    atan2.o(i.atan2) refers (Special) to iusefp.o(.text) for __I$use$fp
    atan2.o(i.atan2) refers to dunder.o(i.__mathlib_dbl_infnan2) for __mathlib_dbl_infnan2
    atan2.o(i.atan2) refers to atan.o(i.atan) for atan
    atan2.o(i.atan2) refers to ddiv.o(.text) for __aeabi_ddiv
    atan2.o(i.atan2) refers to dadd.o(.text) for __aeabi_dsub
    atan2.o(i.atan2) refers to qnan.o(.constdata) for __mathlib_zero
    atan2_x.o(i.____softfp_atan2$lsc) refers (Special) to iusefp.o(.text) for __I$use$fp
    atan2_x.o(i.____softfp_atan2$lsc) refers to atan2_x.o(i.__atan2$lsc) for __atan2$lsc
    atan2_x.o(i.__atan2$lsc) refers (Special) to iusefp.o(.text) for __I$use$fp
    atan2_x.o(i.__atan2$lsc) refers to dunder.o(i.__mathlib_dbl_infnan2) for __mathlib_dbl_infnan2
    atan2_x.o(i.__atan2$lsc) refers to atan.o(i.atan) for atan
    atan2_x.o(i.__atan2$lsc) refers to errno.o(i.__set_errno) for __set_errno
    atan2_x.o(i.__atan2$lsc) refers to ddiv.o(.text) for __aeabi_ddiv
    atan2_x.o(i.__atan2$lsc) refers to dadd.o(.text) for __aeabi_dsub
    atan2_x.o(i.__atan2$lsc) refers to qnan.o(.constdata) for __mathlib_zero
    entry.o(.ARM.Collect$$$$00000000) refers (Special) to entry10a.o(.ARM.Collect$$$$0000000D) for __rt_final_cpp
    entry.o(.ARM.Collect$$$$00000000) refers (Special) to entry11a.o(.ARM.Collect$$$$0000000F) for __rt_final_exit
    entry.o(.ARM.Collect$$$$00000000) refers (Special) to entry7b.o(.ARM.Collect$$$$00000008) for _main_clock
    entry.o(.ARM.Collect$$$$00000000) refers (Special) to entry8b.o(.ARM.Collect$$$$0000000A) for _main_cpp_init
    entry.o(.ARM.Collect$$$$00000000) refers (Special) to entry9a.o(.ARM.Collect$$$$0000000B) for _main_init
    entry.o(.ARM.Collect$$$$00000000) refers (Special) to entry5.o(.ARM.Collect$$$$00000004) for _main_scatterload
    entry.o(.ARM.Collect$$$$00000000) refers (Special) to entry2.o(.ARM.Collect$$$$00000001) for _main_stk
    uldiv.o(.text) refers to llushr.o(.text) for __aeabi_llsr
    uldiv.o(.text) refers to llshl.o(.text) for __aeabi_llsl
    ldiv.o(.text) refers to uldiv.o(.text) for __aeabi_uldivmod
    printfb.o(i.__0fprintf$bare) refers to printfb.o(i._printf_core) for _printf_core
    printfb.o(i.__0fprintf$bare) refers to fputc.o(i.fputc) for fputc
    printfb.o(i.__0printf$bare) refers to printfb.o(i._printf_core) for _printf_core
    printfb.o(i.__0printf$bare) refers to fputc.o(i.fputc) for fputc
    printfb.o(i.__0printf$bare) refers to stdout.o(.data) for __stdout
    printfb.o(i.__0snprintf$bare) refers to printfb.o(i._printf_core) for _printf_core
    printfb.o(i.__0snprintf$bare) refers to printfb.o(i._snputc) for _snputc
    printfb.o(i.__0sprintf$bare) refers to printfb.o(i._printf_core) for _printf_core
    printfb.o(i.__0sprintf$bare) refers to printfb.o(i._sputc) for _sputc
    printfb.o(i.__0vfprintf$bare) refers to printfb.o(i._printf_core) for _printf_core
    printfb.o(i.__0vfprintf$bare) refers to fputc.o(i.fputc) for fputc
    printfb.o(i.__0vprintf$bare) refers to printfb.o(i._printf_core) for _printf_core
    printfb.o(i.__0vprintf$bare) refers to fputc.o(i.fputc) for fputc
    printfb.o(i.__0vprintf$bare) refers to stdout.o(.data) for __stdout
    printfb.o(i.__0vsnprintf$bare) refers to printfb.o(i._printf_core) for _printf_core
    printfb.o(i.__0vsnprintf$bare) refers to printfb.o(i._snputc) for _snputc
    printfb.o(i.__0vsprintf$bare) refers to printfb.o(i._printf_core) for _printf_core
    printfb.o(i.__0vsprintf$bare) refers to printfb.o(i._sputc) for _sputc
    printf0.o(i.__0fprintf$0) refers to printf0.o(i._printf_core) for _printf_core
    printf0.o(i.__0fprintf$0) refers to fputc.o(i.fputc) for fputc
    printf0.o(i.__0printf$0) refers to printf0.o(i._printf_core) for _printf_core
    printf0.o(i.__0printf$0) refers to fputc.o(i.fputc) for fputc
    printf0.o(i.__0printf$0) refers to stdout.o(.data) for __stdout
    printf0.o(i.__0snprintf$0) refers to printf0.o(i._printf_core) for _printf_core
    printf0.o(i.__0snprintf$0) refers to printf0.o(i._snputc) for _snputc
    printf0.o(i.__0sprintf$0) refers to printf0.o(i._printf_core) for _printf_core
    printf0.o(i.__0sprintf$0) refers to printf0.o(i._sputc) for _sputc
    printf0.o(i.__0vfprintf$0) refers to printf0.o(i._printf_core) for _printf_core
    printf0.o(i.__0vfprintf$0) refers to fputc.o(i.fputc) for fputc
    printf0.o(i.__0vprintf$0) refers to printf0.o(i._printf_core) for _printf_core
    printf0.o(i.__0vprintf$0) refers to fputc.o(i.fputc) for fputc
    printf0.o(i.__0vprintf$0) refers to stdout.o(.data) for __stdout
    printf0.o(i.__0vsnprintf$0) refers to printf0.o(i._printf_core) for _printf_core
    printf0.o(i.__0vsnprintf$0) refers to printf0.o(i._snputc) for _snputc
    printf0.o(i.__0vsprintf$0) refers to printf0.o(i._printf_core) for _printf_core
    printf0.o(i.__0vsprintf$0) refers to printf0.o(i._sputc) for _sputc
    printf1.o(i.__0fprintf$1) refers to printf1.o(i._printf_core) for _printf_core
    printf1.o(i.__0fprintf$1) refers to fputc.o(i.fputc) for fputc
    printf1.o(i.__0printf$1) refers to printf1.o(i._printf_core) for _printf_core
    printf1.o(i.__0printf$1) refers to fputc.o(i.fputc) for fputc
    printf1.o(i.__0printf$1) refers to stdout.o(.data) for __stdout
    printf1.o(i.__0snprintf$1) refers to printf1.o(i._printf_core) for _printf_core
    printf1.o(i.__0snprintf$1) refers to printf1.o(i._snputc) for _snputc
    printf1.o(i.__0sprintf$1) refers to printf1.o(i._printf_core) for _printf_core
    printf1.o(i.__0sprintf$1) refers to printf1.o(i._sputc) for _sputc
    printf1.o(i.__0vfprintf$1) refers to printf1.o(i._printf_core) for _printf_core
    printf1.o(i.__0vfprintf$1) refers to fputc.o(i.fputc) for fputc
    printf1.o(i.__0vprintf$1) refers to printf1.o(i._printf_core) for _printf_core
    printf1.o(i.__0vprintf$1) refers to fputc.o(i.fputc) for fputc
    printf1.o(i.__0vprintf$1) refers to stdout.o(.data) for __stdout
    printf1.o(i.__0vsnprintf$1) refers to printf1.o(i._printf_core) for _printf_core
    printf1.o(i.__0vsnprintf$1) refers to printf1.o(i._snputc) for _snputc
    printf1.o(i.__0vsprintf$1) refers to printf1.o(i._printf_core) for _printf_core
    printf1.o(i.__0vsprintf$1) refers to printf1.o(i._sputc) for _sputc
    printf1.o(i._printf_core) refers to uidiv.o(.text) for __aeabi_uidivmod
    printf2.o(i.__0fprintf$2) refers to printf2.o(i._printf_core) for _printf_core
    printf2.o(i.__0fprintf$2) refers to fputc.o(i.fputc) for fputc
    printf2.o(i.__0printf$2) refers to printf2.o(i._printf_core) for _printf_core
    printf2.o(i.__0printf$2) refers to fputc.o(i.fputc) for fputc
    printf2.o(i.__0printf$2) refers to stdout.o(.data) for __stdout
    printf2.o(i.__0snprintf$2) refers to printf2.o(i._printf_core) for _printf_core
    printf2.o(i.__0snprintf$2) refers to printf2.o(i._snputc) for _snputc
    printf2.o(i.__0sprintf$2) refers to printf2.o(i._printf_core) for _printf_core
    printf2.o(i.__0sprintf$2) refers to printf2.o(i._sputc) for _sputc
    printf2.o(i.__0vfprintf$2) refers to printf2.o(i._printf_core) for _printf_core
    printf2.o(i.__0vfprintf$2) refers to fputc.o(i.fputc) for fputc
    printf2.o(i.__0vprintf$2) refers to printf2.o(i._printf_core) for _printf_core
    printf2.o(i.__0vprintf$2) refers to fputc.o(i.fputc) for fputc
    printf2.o(i.__0vprintf$2) refers to stdout.o(.data) for __stdout
    printf2.o(i.__0vsnprintf$2) refers to printf2.o(i._printf_core) for _printf_core
    printf2.o(i.__0vsnprintf$2) refers to printf2.o(i._snputc) for _snputc
    printf2.o(i.__0vsprintf$2) refers to printf2.o(i._printf_core) for _printf_core
    printf2.o(i.__0vsprintf$2) refers to printf2.o(i._sputc) for _sputc
    printf3.o(i.__0fprintf$3) refers to printf3.o(i._printf_core) for _printf_core
    printf3.o(i.__0fprintf$3) refers to fputc.o(i.fputc) for fputc
    printf3.o(i.__0printf$3) refers to printf3.o(i._printf_core) for _printf_core
    printf3.o(i.__0printf$3) refers to fputc.o(i.fputc) for fputc
    printf3.o(i.__0printf$3) refers to stdout.o(.data) for __stdout
    printf3.o(i.__0snprintf$3) refers to printf3.o(i._printf_core) for _printf_core
    printf3.o(i.__0snprintf$3) refers to printf3.o(i._snputc) for _snputc
    printf3.o(i.__0sprintf$3) refers to printf3.o(i._printf_core) for _printf_core
    printf3.o(i.__0sprintf$3) refers to printf3.o(i._sputc) for _sputc
    printf3.o(i.__0vfprintf$3) refers to printf3.o(i._printf_core) for _printf_core
    printf3.o(i.__0vfprintf$3) refers to fputc.o(i.fputc) for fputc
    printf3.o(i.__0vprintf$3) refers to printf3.o(i._printf_core) for _printf_core
    printf3.o(i.__0vprintf$3) refers to fputc.o(i.fputc) for fputc
    printf3.o(i.__0vprintf$3) refers to stdout.o(.data) for __stdout
    printf3.o(i.__0vsnprintf$3) refers to printf3.o(i._printf_core) for _printf_core
    printf3.o(i.__0vsnprintf$3) refers to printf3.o(i._snputc) for _snputc
    printf3.o(i.__0vsprintf$3) refers to printf3.o(i._printf_core) for _printf_core
    printf3.o(i.__0vsprintf$3) refers to printf3.o(i._sputc) for _sputc
    printf3.o(i._printf_core) refers to uidiv.o(.text) for __aeabi_uidivmod
    printf4.o(i.__0fprintf$4) refers to printf4.o(i._printf_core) for _printf_core
    printf4.o(i.__0fprintf$4) refers to fputc.o(i.fputc) for fputc
    printf4.o(i.__0printf$4) refers to printf4.o(i._printf_core) for _printf_core
    printf4.o(i.__0printf$4) refers to fputc.o(i.fputc) for fputc
    printf4.o(i.__0printf$4) refers to stdout.o(.data) for __stdout
    printf4.o(i.__0snprintf$4) refers to printf4.o(i._printf_core) for _printf_core
    printf4.o(i.__0snprintf$4) refers to printf4.o(i._snputc) for _snputc
    printf4.o(i.__0sprintf$4) refers to printf4.o(i._printf_core) for _printf_core
    printf4.o(i.__0sprintf$4) refers to printf4.o(i._sputc) for _sputc
    printf4.o(i.__0vfprintf$4) refers to printf4.o(i._printf_core) for _printf_core
    printf4.o(i.__0vfprintf$4) refers to fputc.o(i.fputc) for fputc
    printf4.o(i.__0vprintf$4) refers to printf4.o(i._printf_core) for _printf_core
    printf4.o(i.__0vprintf$4) refers to fputc.o(i.fputc) for fputc
    printf4.o(i.__0vprintf$4) refers to stdout.o(.data) for __stdout
    printf4.o(i.__0vsnprintf$4) refers to printf4.o(i._printf_core) for _printf_core
    printf4.o(i.__0vsnprintf$4) refers to printf4.o(i._snputc) for _snputc
    printf4.o(i.__0vsprintf$4) refers to printf4.o(i._printf_core) for _printf_core
    printf4.o(i.__0vsprintf$4) refers to printf4.o(i._sputc) for _sputc
    printf4.o(i._printf_core) refers to uldiv.o(.text) for __aeabi_uldivmod
    printf5.o(i.__0fprintf$5) refers to printf5.o(i._printf_core) for _printf_core
    printf5.o(i.__0fprintf$5) refers to fputc.o(i.fputc) for fputc
    printf5.o(i.__0printf$5) refers to printf5.o(i._printf_core) for _printf_core
    printf5.o(i.__0printf$5) refers to fputc.o(i.fputc) for fputc
    printf5.o(i.__0printf$5) refers to stdout.o(.data) for __stdout
    printf5.o(i.__0snprintf$5) refers to printf5.o(i._printf_core) for _printf_core
    printf5.o(i.__0snprintf$5) refers to printf5.o(i._snputc) for _snputc
    printf5.o(i.__0sprintf$5) refers to printf5.o(i._printf_core) for _printf_core
    printf5.o(i.__0sprintf$5) refers to printf5.o(i._sputc) for _sputc
    printf5.o(i.__0vfprintf$5) refers to printf5.o(i._printf_core) for _printf_core
    printf5.o(i.__0vfprintf$5) refers to fputc.o(i.fputc) for fputc
    printf5.o(i.__0vprintf$5) refers to printf5.o(i._printf_core) for _printf_core
    printf5.o(i.__0vprintf$5) refers to fputc.o(i.fputc) for fputc
    printf5.o(i.__0vprintf$5) refers to stdout.o(.data) for __stdout
    printf5.o(i.__0vsnprintf$5) refers to printf5.o(i._printf_core) for _printf_core
    printf5.o(i.__0vsnprintf$5) refers to printf5.o(i._snputc) for _snputc
    printf5.o(i.__0vsprintf$5) refers to printf5.o(i._printf_core) for _printf_core
    printf5.o(i.__0vsprintf$5) refers to printf5.o(i._sputc) for _sputc
    printf5.o(i._printf_core) refers to uldiv.o(.text) for __aeabi_uldivmod
    printf6.o(i.__0fprintf$6) refers to printf6.o(i._printf_core) for _printf_core
    printf6.o(i.__0fprintf$6) refers to fputc.o(i.fputc) for fputc
    printf6.o(i.__0printf$6) refers to printf6.o(i._printf_core) for _printf_core
    printf6.o(i.__0printf$6) refers to fputc.o(i.fputc) for fputc
    printf6.o(i.__0printf$6) refers to stdout.o(.data) for __stdout
    printf6.o(i.__0snprintf$6) refers to printf6.o(i._printf_core) for _printf_core
    printf6.o(i.__0snprintf$6) refers to printf6.o(i._snputc) for _snputc
    printf6.o(i.__0sprintf$6) refers to printf6.o(i._printf_core) for _printf_core
    printf6.o(i.__0sprintf$6) refers to printf6.o(i._sputc) for _sputc
    printf6.o(i.__0vfprintf$6) refers to printf6.o(i._printf_core) for _printf_core
    printf6.o(i.__0vfprintf$6) refers to fputc.o(i.fputc) for fputc
    printf6.o(i.__0vprintf$6) refers to printf6.o(i._printf_core) for _printf_core
    printf6.o(i.__0vprintf$6) refers to fputc.o(i.fputc) for fputc
    printf6.o(i.__0vprintf$6) refers to stdout.o(.data) for __stdout
    printf6.o(i.__0vsnprintf$6) refers to printf6.o(i._printf_core) for _printf_core
    printf6.o(i.__0vsnprintf$6) refers to printf6.o(i._snputc) for _snputc
    printf6.o(i.__0vsprintf$6) refers to printf6.o(i._printf_core) for _printf_core
    printf6.o(i.__0vsprintf$6) refers to printf6.o(i._sputc) for _sputc
    printf6.o(i._printf_core) refers to printf6.o(i._printf_pre_padding) for _printf_pre_padding
    printf6.o(i._printf_core) refers to uidiv.o(.text) for __aeabi_uidivmod
    printf6.o(i._printf_core) refers to printf6.o(i._printf_post_padding) for _printf_post_padding
    printf7.o(i.__0fprintf$7) refers to printf7.o(i._printf_core) for _printf_core
    printf7.o(i.__0fprintf$7) refers to fputc.o(i.fputc) for fputc
    printf7.o(i.__0printf$7) refers to printf7.o(i._printf_core) for _printf_core
    printf7.o(i.__0printf$7) refers to fputc.o(i.fputc) for fputc
    printf7.o(i.__0printf$7) refers to stdout.o(.data) for __stdout
    printf7.o(i.__0snprintf$7) refers to printf7.o(i._printf_core) for _printf_core
    printf7.o(i.__0snprintf$7) refers to printf7.o(i._snputc) for _snputc
    printf7.o(i.__0sprintf$7) refers to printf7.o(i._printf_core) for _printf_core
    printf7.o(i.__0sprintf$7) refers to printf7.o(i._sputc) for _sputc
    printf7.o(i.__0vfprintf$7) refers to printf7.o(i._printf_core) for _printf_core
    printf7.o(i.__0vfprintf$7) refers to fputc.o(i.fputc) for fputc
    printf7.o(i.__0vprintf$7) refers to printf7.o(i._printf_core) for _printf_core
    printf7.o(i.__0vprintf$7) refers to fputc.o(i.fputc) for fputc
    printf7.o(i.__0vprintf$7) refers to stdout.o(.data) for __stdout
    printf7.o(i.__0vsnprintf$7) refers to printf7.o(i._printf_core) for _printf_core
    printf7.o(i.__0vsnprintf$7) refers to printf7.o(i._snputc) for _snputc
    printf7.o(i.__0vsprintf$7) refers to printf7.o(i._printf_core) for _printf_core
    printf7.o(i.__0vsprintf$7) refers to printf7.o(i._sputc) for _sputc
    printf7.o(i._printf_core) refers to printf7.o(i._printf_pre_padding) for _printf_pre_padding
    printf7.o(i._printf_core) refers to uldiv.o(.text) for __aeabi_uldivmod
    printf7.o(i._printf_core) refers to printf7.o(i._printf_post_padding) for _printf_post_padding
    printf8.o(i.__0fprintf$8) refers to printf8.o(i._printf_core) for _printf_core
    printf8.o(i.__0fprintf$8) refers to fputc.o(i.fputc) for fputc
    printf8.o(i.__0printf$8) refers to printf8.o(i._printf_core) for _printf_core
    printf8.o(i.__0printf$8) refers to fputc.o(i.fputc) for fputc
    printf8.o(i.__0printf$8) refers to stdout.o(.data) for __stdout
    printf8.o(i.__0snprintf$8) refers to printf8.o(i._printf_core) for _printf_core
    printf8.o(i.__0snprintf$8) refers to printf8.o(i._snputc) for _snputc
    printf8.o(i.__0sprintf$8) refers to printf8.o(i._printf_core) for _printf_core
    printf8.o(i.__0sprintf$8) refers to printf8.o(i._sputc) for _sputc
    printf8.o(i.__0vfprintf$8) refers to printf8.o(i._printf_core) for _printf_core
    printf8.o(i.__0vfprintf$8) refers to fputc.o(i.fputc) for fputc
    printf8.o(i.__0vprintf$8) refers to printf8.o(i._printf_core) for _printf_core
    printf8.o(i.__0vprintf$8) refers to fputc.o(i.fputc) for fputc
    printf8.o(i.__0vprintf$8) refers to stdout.o(.data) for __stdout
    printf8.o(i.__0vsnprintf$8) refers to printf8.o(i._printf_core) for _printf_core
    printf8.o(i.__0vsnprintf$8) refers to printf8.o(i._snputc) for _snputc
    printf8.o(i.__0vsprintf$8) refers to printf8.o(i._printf_core) for _printf_core
    printf8.o(i.__0vsprintf$8) refers to printf8.o(i._sputc) for _sputc
    printf8.o(i._printf_core) refers to printf8.o(i._printf_pre_padding) for _printf_pre_padding
    printf8.o(i._printf_core) refers to uldiv.o(.text) for __aeabi_uldivmod
    printf8.o(i._printf_core) refers to printf8.o(i._printf_post_padding) for _printf_post_padding
    printfa.o(i.__0fprintf) refers (Special) to iusefp.o(.text) for __I$use$fp
    printfa.o(i.__0fprintf) refers to printfa.o(i._printf_core) for _printf_core
    printfa.o(i.__0fprintf) refers to fputc.o(i.fputc) for fputc
    printfa.o(i.__0printf) refers (Special) to iusefp.o(.text) for __I$use$fp
    printfa.o(i.__0printf) refers to printfa.o(i._printf_core) for _printf_core
    printfa.o(i.__0printf) refers to fputc.o(i.fputc) for fputc
    printfa.o(i.__0printf) refers to stdout.o(.data) for __stdout
    printfa.o(i.__0snprintf) refers (Special) to iusefp.o(.text) for __I$use$fp
    printfa.o(i.__0snprintf) refers to printfa.o(i._printf_core) for _printf_core
    printfa.o(i.__0snprintf) refers to printfa.o(i._snputc) for _snputc
    printfa.o(i.__0sprintf) refers (Special) to iusefp.o(.text) for __I$use$fp
    printfa.o(i.__0sprintf) refers to printfa.o(i._printf_core) for _printf_core
    printfa.o(i.__0sprintf) refers to printfa.o(i._sputc) for _sputc
    printfa.o(i.__0vfprintf) refers (Special) to iusefp.o(.text) for __I$use$fp
    printfa.o(i.__0vfprintf) refers to printfa.o(i._printf_core) for _printf_core
    printfa.o(i.__0vfprintf) refers to fputc.o(i.fputc) for fputc
    printfa.o(i.__0vprintf) refers (Special) to iusefp.o(.text) for __I$use$fp
    printfa.o(i.__0vprintf) refers to printfa.o(i._printf_core) for _printf_core
    printfa.o(i.__0vprintf) refers to fputc.o(i.fputc) for fputc
    printfa.o(i.__0vprintf) refers to stdout.o(.data) for __stdout
    printfa.o(i.__0vsnprintf) refers (Special) to iusefp.o(.text) for __I$use$fp
    printfa.o(i.__0vsnprintf) refers to printfa.o(i._printf_core) for _printf_core
    printfa.o(i.__0vsnprintf) refers to printfa.o(i._snputc) for _snputc
    printfa.o(i.__0vsprintf) refers (Special) to iusefp.o(.text) for __I$use$fp
    printfa.o(i.__0vsprintf) refers to printfa.o(i._printf_core) for _printf_core
    printfa.o(i.__0vsprintf) refers to printfa.o(i._sputc) for _sputc
    printfa.o(i._fp_digits) refers (Special) to iusefp.o(.text) for __I$use$fp
    printfa.o(i._fp_digits) refers to dmul.o(.text) for __aeabi_dmul
    printfa.o(i._fp_digits) refers to ddiv.o(.text) for __aeabi_ddiv
    printfa.o(i._fp_digits) refers to cdrcmple.o(.text) for __aeabi_cdrcmple
    printfa.o(i._fp_digits) refers to dadd.o(.text) for __aeabi_dadd
    printfa.o(i._fp_digits) refers to dfixul.o(.text) for __aeabi_d2ulz
    printfa.o(i._fp_digits) refers to uldiv.o(.text) for __aeabi_uldivmod
    printfa.o(i._printf_core) refers (Special) to iusefp.o(.text) for __I$use$fp
    printfa.o(i._printf_core) refers to printfa.o(i._printf_pre_padding) for _printf_pre_padding
    printfa.o(i._printf_core) refers to uldiv.o(.text) for __aeabi_uldivmod
    printfa.o(i._printf_core) refers to printfa.o(i._printf_post_padding) for _printf_post_padding
    printfa.o(i._printf_core) refers to printfa.o(i._fp_digits) for _fp_digits
    printfa.o(i._printf_core) refers to uidiv.o(.text) for __aeabi_uidivmod
    printfa.o(i._printf_post_padding) refers (Special) to iusefp.o(.text) for __I$use$fp
    printfa.o(i._printf_pre_padding) refers (Special) to iusefp.o(.text) for __I$use$fp
    printfa.o(i._snputc) refers (Special) to iusefp.o(.text) for __I$use$fp
    printfa.o(i._sputc) refers (Special) to iusefp.o(.text) for __I$use$fp
    fadd.o(.text) refers (Special) to iusefp.o(.text) for __I$use$fp
    fadd.o(.text) refers to fepilogue.o(.text) for _float_epilogue
    fmul.o(.text) refers (Special) to iusefp.o(.text) for __I$use$fp
    fdiv.o(.text) refers (Special) to iusefp.o(.text) for __I$use$fp
    fdiv.o(.text) refers to fepilogue.o(.text) for _float_round
    dadd.o(.text) refers (Special) to iusefp.o(.text) for __I$use$fp
    dadd.o(.text) refers to llshl.o(.text) for __aeabi_llsl
    dadd.o(.text) refers to llsshr.o(.text) for __aeabi_lasr
    dadd.o(.text) refers to depilogue.o(.text) for _double_epilogue
    dmul.o(.text) refers (Special) to iusefp.o(.text) for __I$use$fp
    dmul.o(.text) refers to depilogue.o(.text) for _double_epilogue
    ddiv.o(.text) refers (Special) to iusefp.o(.text) for __I$use$fp
    ddiv.o(.text) refers to depilogue.o(.text) for _double_round
    fflti.o(.text) refers (Special) to iusefp.o(.text) for __I$use$fp
    fflti.o(.text) refers to fepilogue.o(.text) for _float_epilogue
    ffltui.o(.text) refers (Special) to iusefp.o(.text) for __I$use$fp
    ffltui.o(.text) refers to fepilogue.o(.text) for _float_epilogue
    dflti.o(.text) refers (Special) to iusefp.o(.text) for __I$use$fp
    dflti.o(.text) refers to depilogue.o(.text) for _double_epilogue
    dfltui.o(.text) refers (Special) to iusefp.o(.text) for __I$use$fp
    dfltui.o(.text) refers to depilogue.o(.text) for _double_epilogue
    ffixi.o(.text) refers (Special) to iusefp.o(.text) for __I$use$fp
    ffixui.o(.text) refers (Special) to iusefp.o(.text) for __I$use$fp
    f2d.o(.text) refers (Special) to iusefp.o(.text) for __I$use$fp
    d2f.o(.text) refers (Special) to iusefp.o(.text) for __I$use$fp
    d2f.o(.text) refers to fepilogue.o(.text) for _float_round
    cfcmple.o(.text) refers (Special) to iusefp.o(.text) for __I$use$fp
    cfrcmple.o(.text) refers (Special) to iusefp.o(.text) for __I$use$fp
    atan.o(i.__softfp_atan) refers (Special) to iusefp.o(.text) for __I$use$fp
    atan.o(i.__softfp_atan) refers to atan.o(i.atan) for atan
    atan.o(i.atan) refers (Special) to iusefp.o(.text) for __I$use$fp
    atan.o(i.atan) refers to dunder.o(i.__mathlib_dbl_infnan) for __mathlib_dbl_infnan
    atan.o(i.atan) refers to fpclassify.o(i.__ARM_fpclassify) for __ARM_fpclassify
    atan.o(i.atan) refers to dunder.o(i.__mathlib_dbl_underflow) for __mathlib_dbl_underflow
    atan.o(i.atan) refers to dadd.o(.text) for __aeabi_dadd
    atan.o(i.atan) refers to dscalb.o(.text) for __ARM_scalbn
    atan.o(i.atan) refers to ddiv.o(.text) for __aeabi_ddiv
    atan.o(i.atan) refers to dmul.o(.text) for __aeabi_dmul
    atan.o(i.atan) refers to poly.o(i.__kernel_poly) for __kernel_poly
    atan.o(i.atan) refers to atan.o(.constdata) for .constdata
    atan.o(.constdata) refers (Special) to iusefp.o(.text) for __I$use$fp
    atan_x.o(i.____softfp_atan$lsc) refers (Special) to iusefp.o(.text) for __I$use$fp
    atan_x.o(i.____softfp_atan$lsc) refers to atan_x.o(i.__atan$lsc) for __atan$lsc
    atan_x.o(i.__atan$lsc) refers (Special) to iusefp.o(.text) for __I$use$fp
    atan_x.o(i.__atan$lsc) refers to dunder.o(i.__mathlib_dbl_infnan) for __mathlib_dbl_infnan
    atan_x.o(i.__atan$lsc) refers to dadd.o(.text) for __aeabi_dadd
    atan_x.o(i.__atan$lsc) refers to dscalb.o(.text) for __ARM_scalbn
    atan_x.o(i.__atan$lsc) refers to ddiv.o(.text) for __aeabi_ddiv
    atan_x.o(i.__atan$lsc) refers to dmul.o(.text) for __aeabi_dmul
    atan_x.o(i.__atan$lsc) refers to poly.o(i.__kernel_poly) for __kernel_poly
    atan_x.o(i.__atan$lsc) refers to atan_x.o(.constdata) for .constdata
    atan_x.o(.constdata) refers (Special) to iusefp.o(.text) for __I$use$fp
    dunder.o(i.__mathlib_dbl_divzero) refers to ddiv.o(.text) for __aeabi_ddiv
    dunder.o(i.__mathlib_dbl_infnan) refers to dscalb.o(.text) for __ARM_scalbn
    dunder.o(i.__mathlib_dbl_infnan2) refers to dadd.o(.text) for __aeabi_dadd
    dunder.o(i.__mathlib_dbl_invalid) refers to ddiv.o(.text) for __aeabi_ddiv
    dunder.o(i.__mathlib_dbl_overflow) refers to dscalb.o(.text) for __ARM_scalbn
    dunder.o(i.__mathlib_dbl_posinfnan) refers to dmul.o(.text) for __aeabi_dmul
    dunder.o(i.__mathlib_dbl_underflow) refers to dscalb.o(.text) for __ARM_scalbn
    fpclassify.o(i.__ARM_fpclassify) refers (Special) to iusefp.o(.text) for __I$use$fp
    poly.o(i.__kernel_poly) refers (Special) to iusefp.o(.text) for __I$use$fp
    poly.o(i.__kernel_poly) refers to dmul.o(.text) for __aeabi_dmul
    poly.o(i.__kernel_poly) refers to dadd.o(.text) for __aeabi_dadd
    qnan.o(.constdata) refers (Special) to iusefp.o(.text) for __I$use$fp
    sqrt.o(i.__softfp_sqrt) refers (Special) to iusefp.o(.text) for __I$use$fp
    sqrt.o(i.__softfp_sqrt) refers to dsqrt.o(.text) for _dsqrt
    sqrt.o(i.__softfp_sqrt) refers to errno.o(i.__set_errno) for __set_errno
    sqrt.o(i.sqrt) refers (Special) to iusefp.o(.text) for __I$use$fp
    sqrt.o(i.sqrt) refers to dsqrt.o(.text) for _dsqrt
    sqrt.o(i.sqrt) refers to errno.o(i.__set_errno) for __set_errno
    sqrt_x.o(i.____softfp_sqrt$lsc) refers (Special) to iusefp.o(.text) for __I$use$fp
    sqrt_x.o(i.____softfp_sqrt$lsc) refers to cdcmple.o(.text) for __aeabi_cdcmple
    sqrt_x.o(i.____softfp_sqrt$lsc) refers to errno.o(i.__set_errno) for __set_errno
    sqrt_x.o(i.____softfp_sqrt$lsc) refers to dsqrt.o(.text) for _dsqrt
    sqrt_x.o(i.__sqrt$lsc) refers (Special) to iusefp.o(.text) for __I$use$fp
    sqrt_x.o(i.__sqrt$lsc) refers to cdcmple.o(.text) for __aeabi_cdcmple
    sqrt_x.o(i.__sqrt$lsc) refers to errno.o(i.__set_errno) for __set_errno
    sqrt_x.o(i.__sqrt$lsc) refers to dsqrt.o(.text) for _dsqrt
    entry2.o(.ARM.Collect$$$$00000001) refers to entry2.o(.ARM.Collect$$$$00002712) for __lit__00000000
    entry2.o(.ARM.Collect$$$$00002712) refers to startup_stm32f10x_hd.o(STACK) for __initial_sp
    entry2.o(__vectab_stack_and_reset_area) refers to startup_stm32f10x_hd.o(STACK) for __initial_sp
    entry2.o(__vectab_stack_and_reset_area) refers to entry.o(.ARM.Collect$$$$00000000) for __main
    entry5.o(.ARM.Collect$$$$00000004) refers to init.o(.text) for __scatterload
    entry9a.o(.ARM.Collect$$$$0000000B) refers to main.o(i.main) for main
    entry9b.o(.ARM.Collect$$$$0000000C) refers to main.o(i.main) for main
    fputc.o(i.fputc) refers (Special) to iusesemip.o(.text) for __I$use$semihosting$fputc
    fputc.o(i.fputc) refers (Special) to semi.o(.text) for __semihosting_library_function
    errno.o(i.__aeabi_errno_addr) refers to errno.o(.data) for .data
    errno.o(i.__read_errno) refers to errno.o(.data) for .data
    errno.o(i.__set_errno) refers to errno.o(.data) for .data
    depilogue.o(.text) refers to llshl.o(.text) for __aeabi_llsl
    depilogue.o(.text) refers to llushr.o(.text) for __aeabi_llsr
    dfixul.o(.text) refers to llushr.o(.text) for __aeabi_llsr
    dfixul.o(.text) refers to llshl.o(.text) for __aeabi_llsl
    init.o(.text) refers to entry5.o(.ARM.Collect$$$$00000004) for __main_after_scatterload
    dsqrt.o(.text) refers to llushr.o(.text) for __aeabi_llsr
    dsqrt.o(.text) refers to depilogue.o(.text) for _double_round


==============================================================================

Removing Unused input sections from the image.

    Removing main.o(.rev16_text), (4 bytes).
    Removing main.o(.revsh_text), (4 bytes).
    Removing main.o(.rrx_text), (6 bytes).
    Removing main.o(i.adc_read_is_ready), (10 bytes).
    Removing main.o(i.enter_critical_section), (12 bytes).
    Removing main.o(i.leave_critical_section), (10 bytes).
    Removing main.o(i.pinMode), (32 bytes).
    Removing battery.o(.rev16_text), (4 bytes).
    Removing battery.o(.revsh_text), (4 bytes).
    Removing battery.o(.rrx_text), (6 bytes).
    Removing battery.o(i._delay_ms), (24 bytes).
    Removing battery.o(i.adc_read_is_ready), (10 bytes).
    Removing battery.o(i.enter_critical_section), (12 bytes).
    Removing battery.o(i.leave_critical_section), (10 bytes).
    Removing battery.o(i.pinMode), (32 bytes).
    Removing beep.o(.rev16_text), (4 bytes).
    Removing beep.o(.revsh_text), (4 bytes).
    Removing beep.o(.rrx_text), (6 bytes).
    Removing beep.o(i.adc_read_is_ready), (10 bytes).
    Removing beep.o(i.beep_beeper), (52 bytes).
    Removing beep.o(i.enter_critical_section), (12 bytes).
    Removing beep.o(i.leave_critical_section), (10 bytes).
    Removing beep.o(i.pinMode), (32 bytes).
    Removing beep.o(i.play_poweron_frequency), (68 bytes).
    Removing beep.o(i.set_beep_frequency), (20 bytes).
    Removing beep.o(i.set_beep_sound), (8 bytes).
    Removing boarddrv.o(.rev16_text), (4 bytes).
    Removing boarddrv.o(.revsh_text), (4 bytes).
    Removing boarddrv.o(.rrx_text), (6 bytes).
    Removing boarddrv.o(i._delay_ms), (24 bytes).
    Removing boarddrv.o(i.adc_read_is_ready), (10 bytes).
    Removing boarddrv.o(i.alert), (12 bytes).
    Removing boarddrv.o(i.board_abort_mode), (16 bytes).
    Removing boarddrv.o(i.board_set_abort_proc), (12 bytes).
    Removing boarddrv.o(i.clear_alert), (12 bytes).
    Removing boarddrv.o(i.delay), (22 bytes).
    Removing boarddrv.o(i.delay_alert), (40 bytes).
    Removing boarddrv.o(i.get_adc), (52 bytes).
    Removing boarddrv.o(i.get_adc_average), (50 bytes).
    Removing boarddrv.o(i.is_alert), (12 bytes).
    Removing boarddrv.o(i.pinMode), (32 bytes).
    Removing crc.o(.rev16_text), (4 bytes).
    Removing crc.o(.revsh_text), (4 bytes).
    Removing crc.o(.rrx_text), (6 bytes).
    Removing crc.o(i.Get_Crc16), (56 bytes).
    Removing crc.o(.constdata), (512 bytes).
    Removing led.o(.rev16_text), (4 bytes).
    Removing led.o(.revsh_text), (4 bytes).
    Removing led.o(.rrx_text), (6 bytes).
    Removing led.o(i._delay_ms), (24 bytes).
    Removing led.o(i.adc_read_is_ready), (10 bytes).
    Removing led.o(i.enter_critical_section), (12 bytes).
    Removing led.o(i.leave_critical_section), (10 bytes).
    Removing led.o(i.pinMode), (32 bytes).
    Removing motor.o(.rev16_text), (4 bytes).
    Removing motor.o(.revsh_text), (4 bytes).
    Removing motor.o(.rrx_text), (6 bytes).
    Removing motor.o(i.adc_read_is_ready), (10 bytes).
    Removing motor.o(i.stalldetector_enterBlindMode), (20 bytes).
    Removing motor.o(i.stalldetector_is_bumped), (40 bytes).
    Removing motor.o(i.stalldetector_is_stalled), (12 bytes).
    Removing softdelay.o(.rev16_text), (4 bytes).
    Removing softdelay.o(.revsh_text), (4 bytes).
    Removing softdelay.o(.rrx_text), (6 bytes).
    Removing softdelay.o(i._delay_ms), (24 bytes).
    Removing softdelay.o(i.adc_read_is_ready), (10 bytes).
    Removing softdelay.o(i.enter_critical_section), (12 bytes).
    Removing softdelay.o(i.leave_critical_section), (10 bytes).
    Removing softdelay.o(i.pinMode), (32 bytes).
    Removing usart.o(.rev16_text), (4 bytes).
    Removing usart.o(.revsh_text), (4 bytes).
    Removing usart.o(.rrx_text), (6 bytes).
    Removing usart.o(i._delay_ms), (24 bytes).
    Removing usart.o(i.adc_read_is_ready), (10 bytes).
    Removing usart.o(i.enter_critical_section), (12 bytes).
    Removing usart.o(i.leave_critical_section), (10 bytes).
    Removing usart.o(i.pinMode), (32 bytes).
    Removing usart.o(i.uart4_init), (172 bytes).
    Removing usart.o(i.usart2_init), (168 bytes).
    Removing watchdog.o(.rev16_text), (4 bytes).
    Removing watchdog.o(.revsh_text), (4 bytes).
    Removing watchdog.o(.rrx_text), (6 bytes).
    Removing watchdog.o(i._delay_ms), (24 bytes).
    Removing watchdog.o(i.adc_read_is_ready), (10 bytes).
    Removing watchdog.o(i.enter_critical_section), (12 bytes).
    Removing watchdog.o(i.leave_critical_section), (10 bytes).
    Removing watchdog.o(i.pinMode), (32 bytes).
    Removing exti.o(.rev16_text), (4 bytes).
    Removing exti.o(.revsh_text), (4 bytes).
    Removing exti.o(.rrx_text), (6 bytes).
    Removing exti.o(i.GPIO_PortSource), (112 bytes).
    Removing exti.o(i.adc_read_is_ready), (10 bytes).
    Removing exti.o(i.enter_critical_section), (12 bytes).
    Removing exti.o(i.leave_critical_section), (10 bytes).
    Removing exti.o(i.pinMode), (32 bytes).
    Removing sonar.o(.rev16_text), (4 bytes).
    Removing sonar.o(.revsh_text), (4 bytes).
    Removing sonar.o(.rrx_text), (6 bytes).
    Removing sonar.o(i.GPIO_PortSource), (112 bytes).
    Removing sonar.o(i._delay_ms), (24 bytes).
    Removing sonar.o(i.adc_read_is_ready), (10 bytes).
    Removing sonar.o(i.enter_critical_section), (12 bytes).
    Removing sonar.o(i.leave_critical_section), (10 bytes).
    Removing sonar.o(i.sonar_exit), (36 bytes).
    Removing protocol.o(.rev16_text), (4 bytes).
    Removing protocol.o(.revsh_text), (4 bytes).
    Removing protocol.o(.rrx_text), (6 bytes).
    Removing protocol.o(i._delay_ms), (24 bytes).
    Removing protocol.o(i.adc_read_is_ready), (10 bytes).
    Removing protocol.o(i.enter_critical_section), (12 bytes).
    Removing protocol.o(i.leave_critical_section), (10 bytes).
    Removing protocol.o(i.pinMode), (32 bytes).
    Removing mpu6050.o(.rev16_text), (4 bytes).
    Removing mpu6050.o(.revsh_text), (4 bytes).
    Removing mpu6050.o(.rrx_text), (6 bytes).
    Removing mpu6050.o(i.adc_read_is_ready), (10 bytes).
    Removing mpu6050.o(i.enter_critical_section), (12 bytes).
    Removing mpu6050.o(i.leave_critical_section), (10 bytes).
    Removing mpu6050.o(i.pinMode), (32 bytes).
    Removing mpuiic.o(.rev16_text), (4 bytes).
    Removing mpuiic.o(.revsh_text), (4 bytes).
    Removing mpuiic.o(.rrx_text), (6 bytes).
    Removing mpuiic.o(i._delay_ms), (24 bytes).
    Removing mpuiic.o(i.adc_read_is_ready), (10 bytes).
    Removing mpuiic.o(i.enter_critical_section), (12 bytes).
    Removing mpuiic.o(i.leave_critical_section), (10 bytes).
    Removing mpuiic.o(i.pinMode), (32 bytes).
    Removing inv_mpu.o(.rev16_text), (4 bytes).
    Removing inv_mpu.o(.revsh_text), (4 bytes).
    Removing inv_mpu.o(.rrx_text), (6 bytes).
    Removing inv_mpu.o(i.adc_read_is_ready), (10 bytes).
    Removing inv_mpu.o(i.enter_critical_section), (12 bytes).
    Removing inv_mpu.o(i.leave_critical_section), (10 bytes).
    Removing inv_mpu.o(i.mpu_dmp_get_Quaternion), (136 bytes).
    Removing inv_mpu.o(i.mpu_get_accel_reg), (116 bytes).
    Removing inv_mpu.o(i.mpu_get_compass_fsr), (8 bytes).
    Removing inv_mpu.o(i.mpu_get_compass_reg), (8 bytes).
    Removing inv_mpu.o(i.mpu_get_compass_sample_rate), (10 bytes).
    Removing inv_mpu.o(i.mpu_get_dmp_state), (20 bytes).
    Removing inv_mpu.o(i.mpu_get_gyro_reg), (116 bytes).
    Removing inv_mpu.o(i.mpu_get_int_status), (68 bytes).
    Removing inv_mpu.o(i.mpu_get_power_state), (28 bytes).
    Removing inv_mpu.o(i.mpu_get_temperature), (160 bytes).
    Removing inv_mpu.o(i.mpu_lp_motion_interrupt), (516 bytes).
    Removing inv_mpu.o(i.mpu_read_fifo), (504 bytes).
    Removing inv_mpu.o(i.mpu_read_reg), (72 bytes).
    Removing inv_mpu.o(i.mpu_reg_dump), (104 bytes).
    Removing inv_mpu.o(i.mpu_set_accel_bias), (384 bytes).
    Removing inv_mpu.o(i.mpu_set_compass_sample_rate), (8 bytes).
    Removing inv_mpu.o(i.mpu_set_int_level), (16 bytes).
    Removing inv_mpu.o(i.pinMode), (32 bytes).
    Removing inv_mpu.o(i.setup_compass), (6 bytes).
    Removing inv_mpu_dmp_motion_driver.o(.rev16_text), (4 bytes).
    Removing inv_mpu_dmp_motion_driver.o(.revsh_text), (4 bytes).
    Removing inv_mpu_dmp_motion_driver.o(.rrx_text), (6 bytes).
    Removing inv_mpu_dmp_motion_driver.o(i.dmp_get_enabled_features), (16 bytes).
    Removing inv_mpu_dmp_motion_driver.o(i.dmp_get_fifo_rate), (16 bytes).
    Removing inv_mpu_dmp_motion_driver.o(i.dmp_get_pedometer_step_count), (66 bytes).
    Removing inv_mpu_dmp_motion_driver.o(i.dmp_get_pedometer_walk_time), (72 bytes).
    Removing inv_mpu_dmp_motion_driver.o(i.dmp_register_android_orient_cb), (16 bytes).
    Removing inv_mpu_dmp_motion_driver.o(i.dmp_register_tap_cb), (16 bytes).
    Removing inv_mpu_dmp_motion_driver.o(i.dmp_set_interrupt_mode), (92 bytes).
    Removing inv_mpu_dmp_motion_driver.o(i.dmp_set_pedometer_step_count), (42 bytes).
    Removing inv_mpu_dmp_motion_driver.o(i.dmp_set_pedometer_walk_time), (48 bytes).
    Removing filters.o(.rev16_text), (4 bytes).
    Removing filters.o(.revsh_text), (4 bytes).
    Removing filters.o(.rrx_text), (6 bytes).
    Removing filters.o(i._delay_ms), (24 bytes).
    Removing filters.o(i.adc_read_is_ready), (10 bytes).
    Removing filters.o(i.add_to_avg_filter_s16), (40 bytes).
    Removing filters.o(i.add_to_avg_filter_u16), (40 bytes).
    Removing filters.o(i.add_to_avg_filter_u32), (70 bytes).
    Removing filters.o(i.enter_critical_section), (12 bytes).
    Removing filters.o(i.leave_critical_section), (10 bytes).
    Removing filters.o(i.pinMode), (32 bytes).
    Removing hwconf.o(.rev16_text), (4 bytes).
    Removing hwconf.o(.revsh_text), (4 bytes).
    Removing hwconf.o(.rrx_text), (6 bytes).
    Removing hwconf.o(i._delay_ms), (24 bytes).
    Removing hwconf.o(i.adc_read_is_ready), (10 bytes).
    Removing hwconf.o(i.enter_critical_section), (12 bytes).
    Removing hwconf.o(i.leave_critical_section), (10 bytes).
    Removing hwconf.o(i.pinMode), (32 bytes).
    Removing stm32f10x_it.o(.rev16_text), (4 bytes).
    Removing stm32f10x_it.o(.revsh_text), (4 bytes).
    Removing stm32f10x_it.o(.rrx_text), (6 bytes).
    Removing startup_stm32f10x_hd.o(HEAP), (512 bytes).
    Removing system_stm32f10x.o(.rev16_text), (4 bytes).
    Removing system_stm32f10x.o(.revsh_text), (4 bytes).
    Removing system_stm32f10x.o(.rrx_text), (6 bytes).
    Removing system_stm32f10x.o(i.SystemCoreClockUpdate), (164 bytes).
    Removing system_stm32f10x.o(.data), (20 bytes).
    Removing misc.o(.rev16_text), (4 bytes).
    Removing misc.o(.revsh_text), (4 bytes).
    Removing misc.o(.rrx_text), (6 bytes).
    Removing misc.o(i.NVIC_SetVectorTable), (20 bytes).
    Removing misc.o(i.NVIC_SystemLPConfig), (32 bytes).
    Removing misc.o(i.SysTick_CLKSourceConfig), (40 bytes).
    Removing stm32f10x_adc.o(.rev16_text), (4 bytes).
    Removing stm32f10x_adc.o(.revsh_text), (4 bytes).
    Removing stm32f10x_adc.o(.rrx_text), (6 bytes).
    Removing stm32f10x_adc.o(i.ADC_AnalogWatchdogCmd), (20 bytes).
    Removing stm32f10x_adc.o(i.ADC_AnalogWatchdogSingleChannelConfig), (16 bytes).
    Removing stm32f10x_adc.o(i.ADC_AnalogWatchdogThresholdsConfig), (6 bytes).
    Removing stm32f10x_adc.o(i.ADC_AutoInjectedConvCmd), (22 bytes).
    Removing stm32f10x_adc.o(i.ADC_ClearFlag), (6 bytes).
    Removing stm32f10x_adc.o(i.ADC_ClearITPendingBit), (10 bytes).
    Removing stm32f10x_adc.o(i.ADC_DeInit), (92 bytes).
    Removing stm32f10x_adc.o(i.ADC_DiscModeChannelCountConfig), (24 bytes).
    Removing stm32f10x_adc.o(i.ADC_DiscModeCmd), (22 bytes).
    Removing stm32f10x_adc.o(i.ADC_ExternalTrigConvCmd), (22 bytes).
    Removing stm32f10x_adc.o(i.ADC_ExternalTrigInjectedConvCmd), (22 bytes).
    Removing stm32f10x_adc.o(i.ADC_ExternalTrigInjectedConvConfig), (16 bytes).
    Removing stm32f10x_adc.o(i.ADC_GetConversionValue), (8 bytes).
    Removing stm32f10x_adc.o(i.ADC_GetDualModeConversionValue), (12 bytes).
    Removing stm32f10x_adc.o(i.ADC_GetFlagStatus), (18 bytes).
    Removing stm32f10x_adc.o(i.ADC_GetITStatus), (36 bytes).
    Removing stm32f10x_adc.o(i.ADC_GetInjectedConversionValue), (28 bytes).
    Removing stm32f10x_adc.o(i.ADC_GetSoftwareStartConvStatus), (20 bytes).
    Removing stm32f10x_adc.o(i.ADC_GetSoftwareStartInjectedConvCmdStatus), (20 bytes).
    Removing stm32f10x_adc.o(i.ADC_ITConfig), (24 bytes).
    Removing stm32f10x_adc.o(i.ADC_InjectedChannelConfig), (130 bytes).
    Removing stm32f10x_adc.o(i.ADC_InjectedDiscModeCmd), (22 bytes).
    Removing stm32f10x_adc.o(i.ADC_InjectedSequencerLengthConfig), (24 bytes).
    Removing stm32f10x_adc.o(i.ADC_SetInjectedOffset), (20 bytes).
    Removing stm32f10x_adc.o(i.ADC_SoftwareStartInjectedConvCmd), (22 bytes).
    Removing stm32f10x_adc.o(i.ADC_StructInit), (18 bytes).
    Removing stm32f10x_adc.o(i.ADC_TempSensorVrefintCmd), (36 bytes).
    Removing stm32f10x_dma.o(.rev16_text), (4 bytes).
    Removing stm32f10x_dma.o(.revsh_text), (4 bytes).
    Removing stm32f10x_dma.o(.rrx_text), (6 bytes).
    Removing stm32f10x_dma.o(i.DMA_ClearITPendingBit), (28 bytes).
    Removing stm32f10x_dma.o(i.DMA_GetCurrDataCounter), (8 bytes).
    Removing stm32f10x_dma.o(i.DMA_GetITStatus), (44 bytes).
    Removing stm32f10x_dma.o(i.DMA_ITConfig), (18 bytes).
    Removing stm32f10x_dma.o(i.DMA_StructInit), (26 bytes).
    Removing stm32f10x_exti.o(.rev16_text), (4 bytes).
    Removing stm32f10x_exti.o(.revsh_text), (4 bytes).
    Removing stm32f10x_exti.o(.rrx_text), (6 bytes).
    Removing stm32f10x_exti.o(i.EXTI_ClearFlag), (12 bytes).
    Removing stm32f10x_exti.o(i.EXTI_DeInit), (36 bytes).
    Removing stm32f10x_exti.o(i.EXTI_GenerateSWInterrupt), (16 bytes).
    Removing stm32f10x_exti.o(i.EXTI_GetFlagStatus), (24 bytes).
    Removing stm32f10x_exti.o(i.EXTI_GetITStatus), (40 bytes).
    Removing stm32f10x_exti.o(i.EXTI_StructInit), (16 bytes).
    Removing stm32f10x_gpio.o(.rev16_text), (4 bytes).
    Removing stm32f10x_gpio.o(.revsh_text), (4 bytes).
    Removing stm32f10x_gpio.o(.rrx_text), (6 bytes).
    Removing stm32f10x_gpio.o(i.GPIO_AFIODeInit), (20 bytes).
    Removing stm32f10x_gpio.o(i.GPIO_DeInit), (200 bytes).
    Removing stm32f10x_gpio.o(i.GPIO_ETH_MediaInterfaceConfig), (12 bytes).
    Removing stm32f10x_gpio.o(i.GPIO_EventOutputCmd), (12 bytes).
    Removing stm32f10x_gpio.o(i.GPIO_EventOutputConfig), (32 bytes).
    Removing stm32f10x_gpio.o(i.GPIO_PinLockConfig), (18 bytes).
    Removing stm32f10x_gpio.o(i.GPIO_ReadInputData), (8 bytes).
    Removing stm32f10x_gpio.o(i.GPIO_ReadOutputData), (8 bytes).
    Removing stm32f10x_gpio.o(i.GPIO_ReadOutputDataBit), (18 bytes).
    Removing stm32f10x_gpio.o(i.GPIO_StructInit), (16 bytes).
    Removing stm32f10x_gpio.o(i.GPIO_Write), (4 bytes).
    Removing stm32f10x_gpio.o(i.GPIO_WriteBit), (10 bytes).
    Removing stm32f10x_i2c.o(.rev16_text), (4 bytes).
    Removing stm32f10x_i2c.o(.revsh_text), (4 bytes).
    Removing stm32f10x_i2c.o(.rrx_text), (6 bytes).
    Removing stm32f10x_i2c.o(i.I2C_ARPCmd), (24 bytes).
    Removing stm32f10x_i2c.o(i.I2C_AcknowledgeConfig), (24 bytes).
    Removing stm32f10x_i2c.o(i.I2C_CalculatePEC), (24 bytes).
    Removing stm32f10x_i2c.o(i.I2C_CheckEvent), (42 bytes).
    Removing stm32f10x_i2c.o(i.I2C_ClearFlag), (12 bytes).
    Removing stm32f10x_i2c.o(i.I2C_ClearITPendingBit), (12 bytes).
    Removing stm32f10x_i2c.o(i.I2C_Cmd), (24 bytes).
    Removing stm32f10x_i2c.o(i.I2C_DMACmd), (24 bytes).
    Removing stm32f10x_i2c.o(i.I2C_DMALastTransferCmd), (24 bytes).
    Removing stm32f10x_i2c.o(i.I2C_DeInit), (56 bytes).
    Removing stm32f10x_i2c.o(i.I2C_DualAddressCmd), (24 bytes).
    Removing stm32f10x_i2c.o(i.I2C_FastModeDutyCycleConfig), (28 bytes).
    Removing stm32f10x_i2c.o(i.I2C_GeneralCallCmd), (24 bytes).
    Removing stm32f10x_i2c.o(i.I2C_GenerateSTART), (24 bytes).
    Removing stm32f10x_i2c.o(i.I2C_GenerateSTOP), (24 bytes).
    Removing stm32f10x_i2c.o(i.I2C_GetFlagStatus), (58 bytes).
    Removing stm32f10x_i2c.o(i.I2C_GetITStatus), (38 bytes).
    Removing stm32f10x_i2c.o(i.I2C_GetLastEvent), (26 bytes).
    Removing stm32f10x_i2c.o(i.I2C_GetPEC), (8 bytes).
    Removing stm32f10x_i2c.o(i.I2C_ITConfig), (18 bytes).
    Removing stm32f10x_i2c.o(i.I2C_Init), (236 bytes).
    Removing stm32f10x_i2c.o(i.I2C_NACKPositionConfig), (28 bytes).
    Removing stm32f10x_i2c.o(i.I2C_OwnAddress2Config), (22 bytes).
    Removing stm32f10x_i2c.o(i.I2C_PECPositionConfig), (28 bytes).
    Removing stm32f10x_i2c.o(i.I2C_ReadRegister), (22 bytes).
    Removing stm32f10x_i2c.o(i.I2C_ReceiveData), (8 bytes).
    Removing stm32f10x_i2c.o(i.I2C_SMBusAlertConfig), (28 bytes).
    Removing stm32f10x_i2c.o(i.I2C_Send7bitAddress), (18 bytes).
    Removing stm32f10x_i2c.o(i.I2C_SendData), (4 bytes).
    Removing stm32f10x_i2c.o(i.I2C_SoftwareResetCmd), (22 bytes).
    Removing stm32f10x_i2c.o(i.I2C_StretchClockCmd), (24 bytes).
    Removing stm32f10x_i2c.o(i.I2C_StructInit), (30 bytes).
    Removing stm32f10x_i2c.o(i.I2C_TransmitPEC), (24 bytes).
    Removing stm32f10x_rcc.o(.rev16_text), (4 bytes).
    Removing stm32f10x_rcc.o(.revsh_text), (4 bytes).
    Removing stm32f10x_rcc.o(.rrx_text), (6 bytes).
    Removing stm32f10x_rcc.o(i.RCC_APB1PeriphResetCmd), (32 bytes).
    Removing stm32f10x_rcc.o(i.RCC_APB2PeriphResetCmd), (32 bytes).
    Removing stm32f10x_rcc.o(i.RCC_AdjustHSICalibrationValue), (24 bytes).
    Removing stm32f10x_rcc.o(i.RCC_BackupResetCmd), (12 bytes).
    Removing stm32f10x_rcc.o(i.RCC_ClearITPendingBit), (12 bytes).
    Removing stm32f10x_rcc.o(i.RCC_ClockSecuritySystemCmd), (12 bytes).
    Removing stm32f10x_rcc.o(i.RCC_DeInit), (76 bytes).
    Removing stm32f10x_rcc.o(i.RCC_GetFlagStatus), (60 bytes).
    Removing stm32f10x_rcc.o(i.RCC_GetITStatus), (24 bytes).
    Removing stm32f10x_rcc.o(i.RCC_GetSYSCLKSource), (16 bytes).
    Removing stm32f10x_rcc.o(i.RCC_HCLKConfig), (24 bytes).
    Removing stm32f10x_rcc.o(i.RCC_HSEConfig), (76 bytes).
    Removing stm32f10x_rcc.o(i.RCC_HSICmd), (12 bytes).
    Removing stm32f10x_rcc.o(i.RCC_ITConfig), (32 bytes).
    Removing stm32f10x_rcc.o(i.RCC_LSEConfig), (52 bytes).
    Removing stm32f10x_rcc.o(i.RCC_LSICmd), (12 bytes).
    Removing stm32f10x_rcc.o(i.RCC_MCOConfig), (12 bytes).
    Removing stm32f10x_rcc.o(i.RCC_PCLK1Config), (24 bytes).
    Removing stm32f10x_rcc.o(i.RCC_PCLK2Config), (24 bytes).
    Removing stm32f10x_rcc.o(i.RCC_PLLCmd), (12 bytes).
    Removing stm32f10x_rcc.o(i.RCC_PLLConfig), (28 bytes).
    Removing stm32f10x_rcc.o(i.RCC_RTCCLKCmd), (12 bytes).
    Removing stm32f10x_rcc.o(i.RCC_RTCCLKConfig), (16 bytes).
    Removing stm32f10x_rcc.o(i.RCC_SYSCLKConfig), (24 bytes).
    Removing stm32f10x_rcc.o(i.RCC_USBCLKConfig), (12 bytes).
    Removing stm32f10x_rcc.o(i.RCC_WaitForHSEStartUp), (56 bytes).
    Removing stm32f10x_tim.o(.rev16_text), (4 bytes).
    Removing stm32f10x_tim.o(.revsh_text), (4 bytes).
    Removing stm32f10x_tim.o(.rrx_text), (6 bytes).
    Removing stm32f10x_tim.o(i.TI1_Config), (128 bytes).
    Removing stm32f10x_tim.o(i.TI2_Config), (152 bytes).
    Removing stm32f10x_tim.o(i.TI3_Config), (144 bytes).
    Removing stm32f10x_tim.o(i.TI4_Config), (152 bytes).
    Removing stm32f10x_tim.o(i.TIM_BDTRConfig), (32 bytes).
    Removing stm32f10x_tim.o(i.TIM_BDTRStructInit), (18 bytes).
    Removing stm32f10x_tim.o(i.TIM_CCPreloadControl), (24 bytes).
    Removing stm32f10x_tim.o(i.TIM_CCxCmd), (30 bytes).
    Removing stm32f10x_tim.o(i.TIM_CCxNCmd), (30 bytes).
    Removing stm32f10x_tim.o(i.TIM_ClearFlag), (6 bytes).
    Removing stm32f10x_tim.o(i.TIM_ClearITPendingBit), (6 bytes).
    Removing stm32f10x_tim.o(i.TIM_ClearOC1Ref), (18 bytes).
    Removing stm32f10x_tim.o(i.TIM_ClearOC2Ref), (24 bytes).
    Removing stm32f10x_tim.o(i.TIM_ClearOC3Ref), (18 bytes).
    Removing stm32f10x_tim.o(i.TIM_ClearOC4Ref), (24 bytes).
    Removing stm32f10x_tim.o(i.TIM_CounterModeConfig), (18 bytes).
    Removing stm32f10x_tim.o(i.TIM_DMACmd), (18 bytes).
    Removing stm32f10x_tim.o(i.TIM_DMAConfig), (10 bytes).
    Removing stm32f10x_tim.o(i.TIM_DeInit), (488 bytes).
    Removing stm32f10x_tim.o(i.TIM_ETRClockMode1Config), (54 bytes).
    Removing stm32f10x_tim.o(i.TIM_ETRClockMode2Config), (32 bytes).
    Removing stm32f10x_tim.o(i.TIM_ETRConfig), (28 bytes).
    Removing stm32f10x_tim.o(i.TIM_EncoderInterfaceConfig), (66 bytes).
    Removing stm32f10x_tim.o(i.TIM_ForcedOC1Config), (18 bytes).
    Removing stm32f10x_tim.o(i.TIM_ForcedOC2Config), (26 bytes).
    Removing stm32f10x_tim.o(i.TIM_ForcedOC3Config), (18 bytes).
    Removing stm32f10x_tim.o(i.TIM_ForcedOC4Config), (26 bytes).
    Removing stm32f10x_tim.o(i.TIM_GenerateEvent), (4 bytes).
    Removing stm32f10x_tim.o(i.TIM_GetCapture1), (6 bytes).
    Removing stm32f10x_tim.o(i.TIM_GetCapture2), (6 bytes).
    Removing stm32f10x_tim.o(i.TIM_GetCapture3), (6 bytes).
    Removing stm32f10x_tim.o(i.TIM_GetCapture4), (8 bytes).
    Removing stm32f10x_tim.o(i.TIM_GetFlagStatus), (18 bytes).
    Removing stm32f10x_tim.o(i.TIM_GetITStatus), (34 bytes).
    Removing stm32f10x_tim.o(i.TIM_GetPrescaler), (6 bytes).
    Removing stm32f10x_tim.o(i.TIM_ICInit), (172 bytes).
    Removing stm32f10x_tim.o(i.TIM_ICStructInit), (18 bytes).
    Removing stm32f10x_tim.o(i.TIM_ITConfig), (18 bytes).
    Removing stm32f10x_tim.o(i.TIM_ITRxExternalClockConfig), (24 bytes).
    Removing stm32f10x_tim.o(i.TIM_InternalClockConfig), (12 bytes).
    Removing stm32f10x_tim.o(i.TIM_OC1FastConfig), (18 bytes).
    Removing stm32f10x_tim.o(i.TIM_OC1NPolarityConfig), (18 bytes).
    Removing stm32f10x_tim.o(i.TIM_OC1PolarityConfig), (18 bytes).
    Removing stm32f10x_tim.o(i.TIM_OC2FastConfig), (26 bytes).
    Removing stm32f10x_tim.o(i.TIM_OC2Init), (164 bytes).
    Removing stm32f10x_tim.o(i.TIM_OC2NPolarityConfig), (26 bytes).
    Removing stm32f10x_tim.o(i.TIM_OC2PolarityConfig), (26 bytes).
    Removing stm32f10x_tim.o(i.TIM_OC2PreloadConfig), (26 bytes).
    Removing stm32f10x_tim.o(i.TIM_OC3FastConfig), (18 bytes).
    Removing stm32f10x_tim.o(i.TIM_OC3NPolarityConfig), (26 bytes).
    Removing stm32f10x_tim.o(i.TIM_OC3PolarityConfig), (26 bytes).
    Removing stm32f10x_tim.o(i.TIM_OC4FastConfig), (26 bytes).
    Removing stm32f10x_tim.o(i.TIM_OC4PolarityConfig), (26 bytes).
    Removing stm32f10x_tim.o(i.TIM_OCStructInit), (20 bytes).
    Removing stm32f10x_tim.o(i.TIM_PWMIConfig), (124 bytes).
    Removing stm32f10x_tim.o(i.TIM_PrescalerConfig), (6 bytes).
    Removing stm32f10x_tim.o(i.TIM_SelectCCDMA), (24 bytes).
    Removing stm32f10x_tim.o(i.TIM_SelectCOM), (24 bytes).
    Removing stm32f10x_tim.o(i.TIM_SelectHallSensor), (24 bytes).
    Removing stm32f10x_tim.o(i.TIM_SelectInputTrigger), (18 bytes).
    Removing stm32f10x_tim.o(i.TIM_SelectMasterSlaveMode), (18 bytes).
    Removing stm32f10x_tim.o(i.TIM_SelectOCxM), (82 bytes).
    Removing stm32f10x_tim.o(i.TIM_SelectOnePulseMode), (18 bytes).
    Removing stm32f10x_tim.o(i.TIM_SelectOutputTrigger), (18 bytes).
    Removing stm32f10x_tim.o(i.TIM_SelectSlaveMode), (18 bytes).
    Removing stm32f10x_tim.o(i.TIM_SetAutoreload), (4 bytes).
    Removing stm32f10x_tim.o(i.TIM_SetClockDivision), (18 bytes).
    Removing stm32f10x_tim.o(i.TIM_SetCompare1), (4 bytes).
    Removing stm32f10x_tim.o(i.TIM_SetCompare2), (4 bytes).
    Removing stm32f10x_tim.o(i.TIM_SetCompare3), (4 bytes).
    Removing stm32f10x_tim.o(i.TIM_SetCompare4), (6 bytes).
    Removing stm32f10x_tim.o(i.TIM_SetIC1Prescaler), (18 bytes).
    Removing stm32f10x_tim.o(i.TIM_SetIC2Prescaler), (26 bytes).
    Removing stm32f10x_tim.o(i.TIM_SetIC3Prescaler), (18 bytes).
    Removing stm32f10x_tim.o(i.TIM_SetIC4Prescaler), (26 bytes).
    Removing stm32f10x_tim.o(i.TIM_TIxExternalClockConfig), (62 bytes).
    Removing stm32f10x_tim.o(i.TIM_TimeBaseStructInit), (18 bytes).
    Removing stm32f10x_tim.o(i.TIM_UpdateDisableConfig), (24 bytes).
    Removing stm32f10x_tim.o(i.TIM_UpdateRequestConfig), (24 bytes).
    Removing stm32f10x_usart.o(.rev16_text), (4 bytes).
    Removing stm32f10x_usart.o(.revsh_text), (4 bytes).
    Removing stm32f10x_usart.o(.rrx_text), (6 bytes).
    Removing stm32f10x_usart.o(i.USART_ClockInit), (34 bytes).
    Removing stm32f10x_usart.o(i.USART_ClockStructInit), (12 bytes).
    Removing stm32f10x_usart.o(i.USART_DeInit), (156 bytes).
    Removing stm32f10x_usart.o(i.USART_HalfDuplexCmd), (24 bytes).
    Removing stm32f10x_usart.o(i.USART_IrDACmd), (24 bytes).
    Removing stm32f10x_usart.o(i.USART_IrDAConfig), (18 bytes).
    Removing stm32f10x_usart.o(i.USART_LINBreakDetectLengthConfig), (18 bytes).
    Removing stm32f10x_usart.o(i.USART_LINCmd), (24 bytes).
    Removing stm32f10x_usart.o(i.USART_OneBitMethodCmd), (24 bytes).
    Removing stm32f10x_usart.o(i.USART_OverSampling8Cmd), (22 bytes).
    Removing stm32f10x_usart.o(i.USART_ReceiverWakeUpCmd), (24 bytes).
    Removing stm32f10x_usart.o(i.USART_SendBreak), (10 bytes).
    Removing stm32f10x_usart.o(i.USART_SendData), (8 bytes).
    Removing stm32f10x_usart.o(i.USART_SetAddress), (18 bytes).
    Removing stm32f10x_usart.o(i.USART_SetGuardTime), (16 bytes).
    Removing stm32f10x_usart.o(i.USART_SetPrescaler), (16 bytes).
    Removing stm32f10x_usart.o(i.USART_SmartCardCmd), (24 bytes).
    Removing stm32f10x_usart.o(i.USART_SmartCardNACKCmd), (24 bytes).
    Removing stm32f10x_usart.o(i.USART_StructInit), (24 bytes).
    Removing stm32f10x_usart.o(i.USART_WakeUpConfig), (18 bytes).
    Removing stm32f10x_wwdg.o(.rev16_text), (4 bytes).
    Removing stm32f10x_wwdg.o(.revsh_text), (4 bytes).
    Removing stm32f10x_wwdg.o(.rrx_text), (6 bytes).
    Removing stm32f10x_wwdg.o(i.WWDG_ClearFlag), (12 bytes).
    Removing stm32f10x_wwdg.o(i.WWDG_DeInit), (22 bytes).
    Removing stm32f10x_wwdg.o(i.WWDG_EnableIT), (12 bytes).
    Removing stm32f10x_wwdg.o(i.WWDG_GetFlagStatus), (12 bytes).
    Removing dfixul.o(.text), (48 bytes).
    Removing cdrcmple.o(.text), (48 bytes).
    Removing cdcmple.o(.text), (48 bytes).

440 unused section(s) (total 13772 bytes) removed from the image.

==============================================================================

Image Symbol Table

    Local Symbols

    Symbol Name                              Value     Ov Type        Size  Object(Section)

    ../clib/../cmprslib/zerorunl.c           0x00000000   Number         0  __dczerorl.o ABSOLUTE
    ../clib/microlib/division.c              0x00000000   Number         0  uidiv.o ABSOLUTE
    ../clib/microlib/division.c              0x00000000   Number         0  uldiv.o ABSOLUTE
    ../clib/microlib/division.c              0x00000000   Number         0  ldiv.o ABSOLUTE
    ../clib/microlib/errno.c                 0x00000000   Number         0  errno.o ABSOLUTE
    ../clib/microlib/init/entry.s            0x00000000   Number         0  entry9b.o ABSOLUTE
    ../clib/microlib/init/entry.s            0x00000000   Number         0  entry9a.o ABSOLUTE
    ../clib/microlib/init/entry.s            0x00000000   Number         0  entry10b.o ABSOLUTE
    ../clib/microlib/init/entry.s            0x00000000   Number         0  entry.o ABSOLUTE
    ../clib/microlib/init/entry.s            0x00000000   Number         0  entry8a.o ABSOLUTE
    ../clib/microlib/init/entry.s            0x00000000   Number         0  entry2.o ABSOLUTE
    ../clib/microlib/init/entry.s            0x00000000   Number         0  entry5.o ABSOLUTE
    ../clib/microlib/init/entry.s            0x00000000   Number         0  entry8b.o ABSOLUTE
    ../clib/microlib/init/entry.s            0x00000000   Number         0  entry7a.o ABSOLUTE
    ../clib/microlib/init/entry.s            0x00000000   Number         0  entry7b.o ABSOLUTE
    ../clib/microlib/init/entry.s            0x00000000   Number         0  entry11b.o ABSOLUTE
    ../clib/microlib/init/entry.s            0x00000000   Number         0  entry10a.o ABSOLUTE
    ../clib/microlib/init/entry.s            0x00000000   Number         0  entry11a.o ABSOLUTE
    ../clib/microlib/longlong.c              0x00000000   Number         0  llsshr.o ABSOLUTE
    ../clib/microlib/longlong.c              0x00000000   Number         0  llushr.o ABSOLUTE
    ../clib/microlib/longlong.c              0x00000000   Number         0  llshl.o ABSOLUTE
    ../clib/microlib/printf/printf.c         0x00000000   Number         0  printf7.o ABSOLUTE
    ../clib/microlib/printf/printf.c         0x00000000   Number         0  printf8.o ABSOLUTE
    ../clib/microlib/printf/printf.c         0x00000000   Number         0  printfa.o ABSOLUTE
    ../clib/microlib/printf/printf.c         0x00000000   Number         0  printf0.o ABSOLUTE
    ../clib/microlib/printf/printf.c         0x00000000   Number         0  printfb.o ABSOLUTE
    ../clib/microlib/printf/printf.c         0x00000000   Number         0  printf1.o ABSOLUTE
    ../clib/microlib/printf/printf.c         0x00000000   Number         0  printf2.o ABSOLUTE
    ../clib/microlib/printf/printf.c         0x00000000   Number         0  printf4.o ABSOLUTE
    ../clib/microlib/printf/printf.c         0x00000000   Number         0  printf5.o ABSOLUTE
    ../clib/microlib/printf/printf.c         0x00000000   Number         0  printf6.o ABSOLUTE
    ../clib/microlib/printf/printf.c         0x00000000   Number         0  printf3.o ABSOLUTE
    ../clib/microlib/printf/stubs.s          0x00000000   Number         0  stubs.o ABSOLUTE
    ../clib/microlib/stdio/fputc.c           0x00000000   Number         0  fputc.o ABSOLUTE
    ../clib/microlib/stdio/semi.s            0x00000000   Number         0  semi.o ABSOLUTE
    ../clib/microlib/stdio/streams.c         0x00000000   Number         0  stdout.o ABSOLUTE
    ../clib/microlib/string/memcmp.c         0x00000000   Number         0  memcmp.o ABSOLUTE
    ../clib/microlib/string/memset.c         0x00000000   Number         0  memseta.o ABSOLUTE
    ../clib/microlib/stubs.s                 0x00000000   Number         0  iusefp.o ABSOLUTE
    ../clib/microlib/stubs.s                 0x00000000   Number         0  iusesemip.o ABSOLUTE
    ../fplib/microlib/d2f.c                  0x00000000   Number         0  d2f.o ABSOLUTE
    ../fplib/microlib/f2d.c                  0x00000000   Number         0  f2d.o ABSOLUTE
    ../fplib/microlib/fpadd.c                0x00000000   Number         0  fadd.o ABSOLUTE
    ../fplib/microlib/fpadd.c                0x00000000   Number         0  dadd.o ABSOLUTE
    ../fplib/microlib/fpdiv.c                0x00000000   Number         0  fdiv.o ABSOLUTE
    ../fplib/microlib/fpdiv.c                0x00000000   Number         0  ddiv.o ABSOLUTE
    ../fplib/microlib/fpepilogue.c           0x00000000   Number         0  fepilogue.o ABSOLUTE
    ../fplib/microlib/fpepilogue.c           0x00000000   Number         0  depilogue.o ABSOLUTE
    ../fplib/microlib/fpfix.c                0x00000000   Number         0  dfixul.o ABSOLUTE
    ../fplib/microlib/fpfix.c                0x00000000   Number         0  ffixi.o ABSOLUTE
    ../fplib/microlib/fpfix.c                0x00000000   Number         0  ffixui.o ABSOLUTE
    ../fplib/microlib/fpflt.c                0x00000000   Number         0  fflti.o ABSOLUTE
    ../fplib/microlib/fpflt.c                0x00000000   Number         0  ffltui.o ABSOLUTE
    ../fplib/microlib/fpflt.c                0x00000000   Number         0  dflti.o ABSOLUTE
    ../fplib/microlib/fpflt.c                0x00000000   Number         0  dfltui.o ABSOLUTE
    ../fplib/microlib/fpmul.c                0x00000000   Number         0  fmul.o ABSOLUTE
    ../fplib/microlib/fpmul.c                0x00000000   Number         0  dmul.o ABSOLUTE
    ../fplib/microlib/fpscalb.c              0x00000000   Number         0  dscalb.o ABSOLUTE
    ../fplib/microlib/fpsqrt.c               0x00000000   Number         0  dsqrt.o ABSOLUTE
    ../mathlib/asin.c                        0x00000000   Number         0  asin_x.o ABSOLUTE
    ../mathlib/asin.c                        0x00000000   Number         0  asin.o ABSOLUTE
    ../mathlib/atan.c                        0x00000000   Number         0  atan_x.o ABSOLUTE
    ../mathlib/atan.c                        0x00000000   Number         0  atan.o ABSOLUTE
    ../mathlib/atan2.c                       0x00000000   Number         0  atan2.o ABSOLUTE
    ../mathlib/atan2.c                       0x00000000   Number         0  atan2_x.o ABSOLUTE
    ../mathlib/dunder.c                      0x00000000   Number         0  dunder.o ABSOLUTE
    ../mathlib/fpclassify.c                  0x00000000   Number         0  fpclassify.o ABSOLUTE
    ../mathlib/poly.c                        0x00000000   Number         0  poly.o ABSOLUTE
    ../mathlib/qnan.c                        0x00000000   Number         0  qnan.o ABSOLUTE
    ../mathlib/sqrt.c                        0x00000000   Number         0  sqrt.o ABSOLUTE
    ../mathlib/sqrt.c                        0x00000000   Number         0  sqrt_x.o ABSOLUTE
    RTE\Device\STM32F103RC\startup_stm32f10x_hd.s 0x00000000   Number         0  startup_stm32f10x_hd.o ABSOLUTE
    RTE\Device\STM32F103RC\system_stm32f10x.c 0x00000000   Number         0  system_stm32f10x.o ABSOLUTE
    RTE\\Device\\STM32F103RC\\system_stm32f10x.c 0x00000000   Number         0  system_stm32f10x.o ABSOLUTE
    cdcmple.s                                0x00000000   Number         0  cdcmple.o ABSOLUTE
    cdrcmple.s                               0x00000000   Number         0  cdrcmple.o ABSOLUTE
    cfcmple.s                                0x00000000   Number         0  cfcmple.o ABSOLUTE
    cfrcmple.s                               0x00000000   Number         0  cfrcmple.o ABSOLUTE
    d:\Keil_v5\ARM\PACK\Keil\STM32F1xx_DFP\2.2.0\Device\StdPeriph_Driver\src\misc.c 0x00000000   Number         0  misc.o ABSOLUTE
    d:\Keil_v5\ARM\PACK\Keil\STM32F1xx_DFP\2.2.0\Device\StdPeriph_Driver\src\stm32f10x_adc.c 0x00000000   Number         0  stm32f10x_adc.o ABSOLUTE
    d:\Keil_v5\ARM\PACK\Keil\STM32F1xx_DFP\2.2.0\Device\StdPeriph_Driver\src\stm32f10x_dma.c 0x00000000   Number         0  stm32f10x_dma.o ABSOLUTE
    d:\Keil_v5\ARM\PACK\Keil\STM32F1xx_DFP\2.2.0\Device\StdPeriph_Driver\src\stm32f10x_exti.c 0x00000000   Number         0  stm32f10x_exti.o ABSOLUTE
    d:\Keil_v5\ARM\PACK\Keil\STM32F1xx_DFP\2.2.0\Device\StdPeriph_Driver\src\stm32f10x_gpio.c 0x00000000   Number         0  stm32f10x_gpio.o ABSOLUTE
    d:\Keil_v5\ARM\PACK\Keil\STM32F1xx_DFP\2.2.0\Device\StdPeriph_Driver\src\stm32f10x_i2c.c 0x00000000   Number         0  stm32f10x_i2c.o ABSOLUTE
    d:\Keil_v5\ARM\PACK\Keil\STM32F1xx_DFP\2.2.0\Device\StdPeriph_Driver\src\stm32f10x_rcc.c 0x00000000   Number         0  stm32f10x_rcc.o ABSOLUTE
    d:\Keil_v5\ARM\PACK\Keil\STM32F1xx_DFP\2.2.0\Device\StdPeriph_Driver\src\stm32f10x_tim.c 0x00000000   Number         0  stm32f10x_tim.o ABSOLUTE
    d:\Keil_v5\ARM\PACK\Keil\STM32F1xx_DFP\2.2.0\Device\StdPeriph_Driver\src\stm32f10x_usart.c 0x00000000   Number         0  stm32f10x_usart.o ABSOLUTE
    d:\Keil_v5\ARM\PACK\Keil\STM32F1xx_DFP\2.2.0\Device\StdPeriph_Driver\src\stm32f10x_wwdg.c 0x00000000   Number         0  stm32f10x_wwdg.o ABSOLUTE
    d:\\Keil_v5\\ARM\\PACK\\Keil\\STM32F1xx_DFP\\2.2.0\\Device\\StdPeriph_Driver\\src\\misc.c 0x00000000   Number         0  misc.o ABSOLUTE
    d:\\Keil_v5\\ARM\\PACK\\Keil\\STM32F1xx_DFP\\2.2.0\\Device\\StdPeriph_Driver\\src\\stm32f10x_adc.c 0x00000000   Number         0  stm32f10x_adc.o ABSOLUTE
    d:\\Keil_v5\\ARM\\PACK\\Keil\\STM32F1xx_DFP\\2.2.0\\Device\\StdPeriph_Driver\\src\\stm32f10x_dma.c 0x00000000   Number         0  stm32f10x_dma.o ABSOLUTE
    d:\\Keil_v5\\ARM\\PACK\\Keil\\STM32F1xx_DFP\\2.2.0\\Device\\StdPeriph_Driver\\src\\stm32f10x_exti.c 0x00000000   Number         0  stm32f10x_exti.o ABSOLUTE
    d:\\Keil_v5\\ARM\\PACK\\Keil\\STM32F1xx_DFP\\2.2.0\\Device\\StdPeriph_Driver\\src\\stm32f10x_gpio.c 0x00000000   Number         0  stm32f10x_gpio.o ABSOLUTE
    d:\\Keil_v5\\ARM\\PACK\\Keil\\STM32F1xx_DFP\\2.2.0\\Device\\StdPeriph_Driver\\src\\stm32f10x_i2c.c 0x00000000   Number         0  stm32f10x_i2c.o ABSOLUTE
    d:\\Keil_v5\\ARM\\PACK\\Keil\\STM32F1xx_DFP\\2.2.0\\Device\\StdPeriph_Driver\\src\\stm32f10x_rcc.c 0x00000000   Number         0  stm32f10x_rcc.o ABSOLUTE
    d:\\Keil_v5\\ARM\\PACK\\Keil\\STM32F1xx_DFP\\2.2.0\\Device\\StdPeriph_Driver\\src\\stm32f10x_tim.c 0x00000000   Number         0  stm32f10x_tim.o ABSOLUTE
    d:\\Keil_v5\\ARM\\PACK\\Keil\\STM32F1xx_DFP\\2.2.0\\Device\\StdPeriph_Driver\\src\\stm32f10x_usart.c 0x00000000   Number         0  stm32f10x_usart.o ABSOLUTE
    d:\\Keil_v5\\ARM\\PACK\\Keil\\STM32F1xx_DFP\\2.2.0\\Device\\StdPeriph_Driver\\src\\stm32f10x_wwdg.c 0x00000000   Number         0  stm32f10x_wwdg.o ABSOLUTE
    dc.s                                     0x00000000   Number         0  dc.o ABSOLUTE
    handlers.s                               0x00000000   Number         0  handlers.o ABSOLUTE
    init.s                                   0x00000000   Number         0  init.o ABSOLUTE
    src\\driver\\battery.c                   0x00000000   Number         0  battery.o ABSOLUTE
    src\\driver\\beep.c                      0x00000000   Number         0  beep.o ABSOLUTE
    src\\driver\\boarddrv.c                  0x00000000   Number         0  boarddrv.o ABSOLUTE
    src\\driver\\crc.c                       0x00000000   Number         0  crc.o ABSOLUTE
    src\\driver\\exti.c                      0x00000000   Number         0  exti.o ABSOLUTE
    src\\driver\\led.c                       0x00000000   Number         0  led.o ABSOLUTE
    src\\driver\\motor.c                     0x00000000   Number         0  motor.o ABSOLUTE
    src\\driver\\mpu6050\\eMPL\\inv_mpu.c    0x00000000   Number         0  inv_mpu.o ABSOLUTE
    src\\driver\\mpu6050\\eMPL\\inv_mpu_dmp_motion_driver.c 0x00000000   Number         0  inv_mpu_dmp_motion_driver.o ABSOLUTE
    src\\driver\\mpu6050\\mpu6050.c          0x00000000   Number         0  mpu6050.o ABSOLUTE
    src\\driver\\mpu6050\\mpuiic.c           0x00000000   Number         0  mpuiic.o ABSOLUTE
    src\\driver\\protocol.c                  0x00000000   Number         0  protocol.o ABSOLUTE
    src\\driver\\softdelay.c                 0x00000000   Number         0  softdelay.o ABSOLUTE
    src\\driver\\sonar.c                     0x00000000   Number         0  sonar.o ABSOLUTE
    src\\driver\\usart.c                     0x00000000   Number         0  usart.o ABSOLUTE
    src\\driver\\watchdog.c                  0x00000000   Number         0  watchdog.o ABSOLUTE
    src\\main.c                              0x00000000   Number         0  main.o ABSOLUTE
    src\\utils\\filters.c                    0x00000000   Number         0  filters.o ABSOLUTE
    src\\utils\\hwconf.c                     0x00000000   Number         0  hwconf.o ABSOLUTE
    src\\utils\\stm32f10x_it.c               0x00000000   Number         0  stm32f10x_it.o ABSOLUTE
    src\driver\battery.c                     0x00000000   Number         0  battery.o ABSOLUTE
    src\driver\beep.c                        0x00000000   Number         0  beep.o ABSOLUTE
    src\driver\boarddrv.c                    0x00000000   Number         0  boarddrv.o ABSOLUTE
    src\driver\crc.c                         0x00000000   Number         0  crc.o ABSOLUTE
    src\driver\exti.c                        0x00000000   Number         0  exti.o ABSOLUTE
    src\driver\led.c                         0x00000000   Number         0  led.o ABSOLUTE
    src\driver\motor.c                       0x00000000   Number         0  motor.o ABSOLUTE
    src\driver\mpu6050\eMPL\inv_mpu.c        0x00000000   Number         0  inv_mpu.o ABSOLUTE
    src\driver\mpu6050\eMPL\inv_mpu_dmp_motion_driver.c 0x00000000   Number         0  inv_mpu_dmp_motion_driver.o ABSOLUTE
    src\driver\mpu6050\mpu6050.c             0x00000000   Number         0  mpu6050.o ABSOLUTE
    src\driver\mpu6050\mpuiic.c              0x00000000   Number         0  mpuiic.o ABSOLUTE
    src\driver\protocol.c                    0x00000000   Number         0  protocol.o ABSOLUTE
    src\driver\softdelay.c                   0x00000000   Number         0  softdelay.o ABSOLUTE
    src\driver\sonar.c                       0x00000000   Number         0  sonar.o ABSOLUTE
    src\driver\usart.c                       0x00000000   Number         0  usart.o ABSOLUTE
    src\driver\watchdog.c                    0x00000000   Number         0  watchdog.o ABSOLUTE
    src\main.c                               0x00000000   Number         0  main.o ABSOLUTE
    src\utils\filters.c                      0x00000000   Number         0  filters.o ABSOLUTE
    src\utils\hwconf.c                       0x00000000   Number         0  hwconf.o ABSOLUTE
    src\utils\stm32f10x_it.c                 0x00000000   Number         0  stm32f10x_it.o ABSOLUTE
    RESET                                    0x08000000   Section      304  startup_stm32f10x_hd.o(RESET)
    .ARM.Collect$$$$00000000                 0x08000130   Section        0  entry.o(.ARM.Collect$$$$00000000)
    .ARM.Collect$$$$00000001                 0x08000130   Section        4  entry2.o(.ARM.Collect$$$$00000001)
    .ARM.Collect$$$$00000004                 0x08000134   Section        4  entry5.o(.ARM.Collect$$$$00000004)
    .ARM.Collect$$$$00000008                 0x08000138   Section        0  entry7b.o(.ARM.Collect$$$$00000008)
    .ARM.Collect$$$$0000000A                 0x08000138   Section        0  entry8b.o(.ARM.Collect$$$$0000000A)
    .ARM.Collect$$$$0000000B                 0x08000138   Section        8  entry9a.o(.ARM.Collect$$$$0000000B)
    .ARM.Collect$$$$0000000D                 0x08000140   Section        0  entry10a.o(.ARM.Collect$$$$0000000D)
    .ARM.Collect$$$$0000000F                 0x08000140   Section        0  entry11a.o(.ARM.Collect$$$$0000000F)
    .ARM.Collect$$$$00002712                 0x08000140   Section        4  entry2.o(.ARM.Collect$$$$00002712)
    __lit__00000000                          0x08000140   Data           4  entry2.o(.ARM.Collect$$$$00002712)
    .text                                    0x08000144   Section       36  startup_stm32f10x_hd.o(.text)
    .text                                    0x08000168   Section        0  uldiv.o(.text)
    .text                                    0x080001ca   Section        0  ldiv.o(.text)
    .text                                    0x0800022c   Section        0  memseta.o(.text)
    .text                                    0x08000250   Section        0  memcmp.o(.text)
    .text                                    0x0800026a   Section        0  fadd.o(.text)
    .text                                    0x0800031a   Section        0  fmul.o(.text)
    .text                                    0x0800037e   Section        0  fdiv.o(.text)
    .text                                    0x080003fa   Section        0  dadd.o(.text)
    .text                                    0x08000548   Section        0  dmul.o(.text)
    .text                                    0x0800062c   Section        0  ddiv.o(.text)
    .text                                    0x0800070a   Section        0  fflti.o(.text)
    .text                                    0x0800071c   Section        0  ffltui.o(.text)
    .text                                    0x08000726   Section        0  dflti.o(.text)
    .text                                    0x08000748   Section        0  dfltui.o(.text)
    .text                                    0x08000762   Section        0  ffixi.o(.text)
    .text                                    0x08000794   Section        0  ffixui.o(.text)
    .text                                    0x080007bc   Section        0  f2d.o(.text)
    .text                                    0x080007e2   Section        0  d2f.o(.text)
    .text                                    0x0800081c   Section       20  cfcmple.o(.text)
    .text                                    0x08000830   Section       20  cfrcmple.o(.text)
    .text                                    0x08000844   Section        0  llshl.o(.text)
    .text                                    0x08000862   Section        0  llushr.o(.text)
    .text                                    0x08000882   Section        0  llsshr.o(.text)
    .text                                    0x080008a6   Section        0  iusefp.o(.text)
    .text                                    0x080008a6   Section        0  fepilogue.o(.text)
    .text                                    0x08000914   Section        0  depilogue.o(.text)
    .text                                    0x080009ce   Section        0  dscalb.o(.text)
    .text                                    0x080009fc   Section       36  init.o(.text)
    .text                                    0x08000a20   Section        0  dsqrt.o(.text)
    .text                                    0x08000a20   Section        0  iusesemip.o(.text)
    .text                                    0x08000a20   Section        0  semi.o(.text)
    .text                                    0x08000ac2   Section        0  __dczerorl.o(.text)
    i.ADC_Cmd                                0x08000afc   Section        0  stm32f10x_adc.o(i.ADC_Cmd)
    i.ADC_Configuration                      0x08000b14   Section        0  hwconf.o(i.ADC_Configuration)
    ADC_Configuration                        0x08000b15   Thumb Code   202  hwconf.o(i.ADC_Configuration)
    i.ADC_DMACmd                             0x08000bec   Section        0  stm32f10x_adc.o(i.ADC_DMACmd)
    i.ADC_GetCalibrationStatus               0x08000c02   Section        0  stm32f10x_adc.o(i.ADC_GetCalibrationStatus)
    i.ADC_GetResetCalibrationStatus          0x08000c16   Section        0  stm32f10x_adc.o(i.ADC_GetResetCalibrationStatus)
    i.ADC_Init                               0x08000c2c   Section        0  stm32f10x_adc.o(i.ADC_Init)
    i.ADC_RegularChannelConfig               0x08000c7c   Section        0  stm32f10x_adc.o(i.ADC_RegularChannelConfig)
    i.ADC_ResetCalibration                   0x08000d34   Section        0  stm32f10x_adc.o(i.ADC_ResetCalibration)
    i.ADC_SoftwareStartConvCmd               0x08000d3e   Section        0  stm32f10x_adc.o(i.ADC_SoftwareStartConvCmd)
    i.ADC_StartCalibration                   0x08000d54   Section        0  stm32f10x_adc.o(i.ADC_StartCalibration)
    i.BusFault_Handler                       0x08000d5e   Section        0  stm32f10x_it.o(i.BusFault_Handler)
    i.DMA_ClearFlag                          0x08000d64   Section        0  stm32f10x_dma.o(i.DMA_ClearFlag)
    i.DMA_Cmd                                0x08000d80   Section        0  stm32f10x_dma.o(i.DMA_Cmd)
    i.DMA_DeInit                             0x08000d98   Section        0  stm32f10x_dma.o(i.DMA_DeInit)
    i.DMA_Enable                             0x08000ee4   Section        0  usart.o(i.DMA_Enable)
    i.DMA_GetFlagStatus                      0x08000f04   Section        0  stm32f10x_dma.o(i.DMA_GetFlagStatus)
    i.DMA_Init                               0x08000f30   Section        0  stm32f10x_dma.o(i.DMA_Init)
    i.DMA_SetCurrDataCounter                 0x08000f6c   Section        0  stm32f10x_dma.o(i.DMA_SetCurrDataCounter)
    i.DebugMon_Handler                       0x08000f70   Section        0  stm32f10x_it.o(i.DebugMon_Handler)
    i.EXTI0_IRQHandler                       0x08000f74   Section        0  exti.o(i.EXTI0_IRQHandler)
    i.EXTI15_10_IRQHandler                   0x08000f9c   Section        0  exti.o(i.EXTI15_10_IRQHandler)
    i.EXTI1_IRQHandler                       0x08000fe4   Section        0  exti.o(i.EXTI1_IRQHandler)
    i.EXTI2_IRQHandler                       0x0800100c   Section        0  exti.o(i.EXTI2_IRQHandler)
    i.EXTI3_IRQHandler                       0x08001034   Section        0  exti.o(i.EXTI3_IRQHandler)
    i.EXTI4_IRQHandler                       0x0800105c   Section        0  exti.o(i.EXTI4_IRQHandler)
    i.EXTI9_5_IRQHandler                     0x08001084   Section        0  exti.o(i.EXTI9_5_IRQHandler)
    i.EXTI_ClearITPendingBit                 0x080010c4   Section        0  stm32f10x_exti.o(i.EXTI_ClearITPendingBit)
    i.EXTI_Init                              0x080010d0   Section        0  stm32f10x_exti.o(i.EXTI_Init)
    i.GPIO_EXTILineConfig                    0x08001164   Section        0  stm32f10x_gpio.o(i.GPIO_EXTILineConfig)
    i.GPIO_Init                              0x080011a4   Section        0  stm32f10x_gpio.o(i.GPIO_Init)
    i.GPIO_PinRemapConfig                    0x080012bc   Section        0  stm32f10x_gpio.o(i.GPIO_PinRemapConfig)
    i.GPIO_PortSource                        0x0800134c   Section        0  motor.o(i.GPIO_PortSource)
    GPIO_PortSource                          0x0800134d   Thumb Code    82  motor.o(i.GPIO_PortSource)
    i.GPIO_ReadInputDataBit                  0x080013bc   Section        0  stm32f10x_gpio.o(i.GPIO_ReadInputDataBit)
    i.GPIO_ResetBits                         0x080013ce   Section        0  stm32f10x_gpio.o(i.GPIO_ResetBits)
    i.GPIO_SetBits                           0x080013d2   Section        0  stm32f10x_gpio.o(i.GPIO_SetBits)
    i.GetChipID                              0x080013d8   Section        0  protocol.o(i.GetChipID)
    i.Get_Crc8                               0x0800141c   Section        0  crc.o(i.Get_Crc8)
    i.HardFault_Handler                      0x08001454   Section        0  stm32f10x_it.o(i.HardFault_Handler)
    i.InitMotor                              0x08001458   Section        0  motor.o(i.InitMotor)
    i.InitPWM                                0x080014c4   Section        0  motor.o(i.InitPWM)
    i.Kalman_Filter                          0x080015a0   Section        0  filters.o(i.Kalman_Filter)
    i.MPU_Get_Accelerometer                  0x08001818   Section        0  mpu6050.o(i.MPU_Get_Accelerometer)
    i.MPU_Get_Gyroscope                      0x08001868   Section        0  mpu6050.o(i.MPU_Get_Gyroscope)
    i.MPU_Get_Temperature                    0x080018b8   Section        0  mpu6050.o(i.MPU_Get_Temperature)
    i.MPU_IIC_Ack                            0x08001920   Section        0  mpuiic.o(i.MPU_IIC_Ack)
    i.MPU_IIC_Delay                          0x0800196c   Section        0  mpuiic.o(i.MPU_IIC_Delay)
    i.MPU_IIC_Init                           0x08001978   Section        0  mpuiic.o(i.MPU_IIC_Init)
    i.MPU_IIC_NAck                           0x080019b4   Section        0  mpuiic.o(i.MPU_IIC_NAck)
    i.MPU_IIC_Read_Byte                      0x08001a00   Section        0  mpuiic.o(i.MPU_IIC_Read_Byte)
    i.MPU_IIC_Send_Byte                      0x08001a6c   Section        0  mpuiic.o(i.MPU_IIC_Send_Byte)
    i.MPU_IIC_Start                          0x08001ac8   Section        0  mpuiic.o(i.MPU_IIC_Start)
    i.MPU_IIC_Stop                           0x08001b10   Section        0  mpuiic.o(i.MPU_IIC_Stop)
    i.MPU_IIC_Wait_Ack                       0x08001b58   Section        0  mpuiic.o(i.MPU_IIC_Wait_Ack)
    i.MPU_Init                               0x08001bbc   Section        0  mpu6050.o(i.MPU_Init)
    i.MPU_Read_Byte                          0x08001c36   Section        0  mpu6050.o(i.MPU_Read_Byte)
    i.MPU_Read_Len                           0x08001c70   Section        0  mpu6050.o(i.MPU_Read_Len)
    i.MPU_Set_Accel_Fsr                      0x08001ce4   Section        0  mpu6050.o(i.MPU_Set_Accel_Fsr)
    i.MPU_Set_Gyro_Fsr                       0x08001cf4   Section        0  mpu6050.o(i.MPU_Set_Gyro_Fsr)
    i.MPU_Set_LPF                            0x08001d04   Section        0  mpu6050.o(i.MPU_Set_LPF)
    i.MPU_Set_Rate                           0x08001d3e   Section        0  mpu6050.o(i.MPU_Set_Rate)
    i.MPU_Write_Byte                         0x08001d78   Section        0  mpu6050.o(i.MPU_Write_Byte)
    i.MPU_Write_Len                          0x08001dbc   Section        0  mpu6050.o(i.MPU_Write_Len)
    i.MemManage_Handler                      0x08001e1c   Section        0  stm32f10x_it.o(i.MemManage_Handler)
    i.NMI_Handler                            0x08001e20   Section        0  stm32f10x_it.o(i.NMI_Handler)
    i.NVIC_Configuration                     0x08001e22   Section        0  motor.o(i.NVIC_Configuration)
    NVIC_Configuration                       0x08001e23   Thumb Code   102  motor.o(i.NVIC_Configuration)
    i.NVIC_Configuration                     0x08001e88   Section        0  hwconf.o(i.NVIC_Configuration)
    NVIC_Configuration                       0x08001e89   Thumb Code    28  hwconf.o(i.NVIC_Configuration)
    i.NVIC_Init                              0x08001ea4   Section        0  misc.o(i.NVIC_Init)
    i.NVIC_PriorityGroupConfig               0x08001f14   Section        0  misc.o(i.NVIC_PriorityGroupConfig)
    i.PendSV_Handler                         0x08001f28   Section        0  stm32f10x_it.o(i.PendSV_Handler)
    i.RCC_ADCCLKConfig                       0x08001f2c   Section        0  stm32f10x_rcc.o(i.RCC_ADCCLKConfig)
    i.RCC_AHBPeriphClockCmd                  0x08001f44   Section        0  stm32f10x_rcc.o(i.RCC_AHBPeriphClockCmd)
    i.RCC_APB1PeriphClockCmd                 0x08001f64   Section        0  stm32f10x_rcc.o(i.RCC_APB1PeriphClockCmd)
    i.RCC_APB2PeriphClockCmd                 0x08001f84   Section        0  stm32f10x_rcc.o(i.RCC_APB2PeriphClockCmd)
    i.RCC_ClearFlag                          0x08001fa4   Section        0  stm32f10x_rcc.o(i.RCC_ClearFlag)
    i.RCC_Configuration                      0x08001fb8   Section        0  hwconf.o(i.RCC_Configuration)
    RCC_Configuration                        0x08001fb9   Thumb Code    38  hwconf.o(i.RCC_Configuration)
    i.RCC_GetClocksFreq                      0x08001fe4   Section        0  stm32f10x_rcc.o(i.RCC_GetClocksFreq)
    i.ReceiveData                            0x080020b8   Section        0  protocol.o(i.ReceiveData)
    i.SONAR_TRIG                             0x080025c8   Section        0  sonar.o(i.SONAR_TRIG)
    SONAR_TRIG                               0x080025c9   Thumb Code    62  sonar.o(i.SONAR_TRIG)
    i.SVC_Handler                            0x0800260c   Section        0  stm32f10x_it.o(i.SVC_Handler)
    i.SendData                               0x08002610   Section        0  protocol.o(i.SendData)
    i.SetSysClock                            0x08002abc   Section        0  system_stm32f10x.o(i.SetSysClock)
    SetSysClock                              0x08002abd   Thumb Code     8  system_stm32f10x.o(i.SetSysClock)
    i.SetSysClockTo72                        0x08002ac4   Section        0  system_stm32f10x.o(i.SetSysClockTo72)
    SetSysClockTo72                          0x08002ac5   Thumb Code   214  system_stm32f10x.o(i.SetSysClockTo72)
    i.SysTick_Handler                        0x08002ba4   Section        0  boarddrv.o(i.SysTick_Handler)
    i.SystemInit                             0x08002bb4   Section        0  system_stm32f10x.o(i.SystemInit)
    i.TIM_ARRPreloadConfig                   0x08002c14   Section        0  stm32f10x_tim.o(i.TIM_ARRPreloadConfig)
    i.TIM_Cmd                                0x08002c2c   Section        0  stm32f10x_tim.o(i.TIM_Cmd)
    i.TIM_CtrlPWMOutputs                     0x08002c44   Section        0  stm32f10x_tim.o(i.TIM_CtrlPWMOutputs)
    i.TIM_GetCounter                         0x08002c62   Section        0  stm32f10x_tim.o(i.TIM_GetCounter)
    i.TIM_OC1Init                            0x08002c68   Section        0  stm32f10x_tim.o(i.TIM_OC1Init)
    i.TIM_OC1PreloadConfig                   0x08002d00   Section        0  stm32f10x_tim.o(i.TIM_OC1PreloadConfig)
    i.TIM_OC3Init                            0x08002d14   Section        0  stm32f10x_tim.o(i.TIM_OC3Init)
    i.TIM_OC3PreloadConfig                   0x08002db4   Section        0  stm32f10x_tim.o(i.TIM_OC3PreloadConfig)
    i.TIM_OC4Init                            0x08002dc8   Section        0  stm32f10x_tim.o(i.TIM_OC4Init)
    i.TIM_OC4PreloadConfig                   0x08002e44   Section        0  stm32f10x_tim.o(i.TIM_OC4PreloadConfig)
    i.TIM_SetCounter                         0x08002e5e   Section        0  stm32f10x_tim.o(i.TIM_SetCounter)
    i.TIM_TimeBaseInit                       0x08002e64   Section        0  stm32f10x_tim.o(i.TIM_TimeBaseInit)
    i.UART4_IRQHandler                       0x08002f08   Section        0  usart.o(i.UART4_IRQHandler)
    i.USART2_IRQHandler                      0x08002f8c   Section        0  usart.o(i.USART2_IRQHandler)
    i.USART3_IRQHandler                      0x08003008   Section        0  usart.o(i.USART3_IRQHandler)
    i.USART_ClearFlag                        0x08003040   Section        0  stm32f10x_usart.o(i.USART_ClearFlag)
    i.USART_ClearITPendingBit                0x08003052   Section        0  stm32f10x_usart.o(i.USART_ClearITPendingBit)
    i.USART_Cmd                              0x08003070   Section        0  stm32f10x_usart.o(i.USART_Cmd)
    i.USART_DMACmd                           0x08003088   Section        0  stm32f10x_usart.o(i.USART_DMACmd)
    i.USART_GetFlagStatus                    0x0800309a   Section        0  stm32f10x_usart.o(i.USART_GetFlagStatus)
    i.USART_GetITStatus                      0x080030b4   Section        0  stm32f10x_usart.o(i.USART_GetITStatus)
    i.USART_ITConfig                         0x08003108   Section        0  stm32f10x_usart.o(i.USART_ITConfig)
    i.USART_Init                             0x08003154   Section        0  stm32f10x_usart.o(i.USART_Init)
    i.USART_ReceiveData                      0x0800322c   Section        0  stm32f10x_usart.o(i.USART_ReceiveData)
    i.UsageFault_Handler                     0x08003236   Section        0  stm32f10x_it.o(i.UsageFault_Handler)
    i.WWDG_Enable                            0x0800323c   Section        0  stm32f10x_wwdg.o(i.WWDG_Enable)
    i.WWDG_SetCounter                        0x0800324c   Section        0  stm32f10x_wwdg.o(i.WWDG_SetCounter)
    i.WWDG_SetPrescaler                      0x0800325c   Section        0  stm32f10x_wwdg.o(i.WWDG_SetPrescaler)
    i.WWDG_SetWindowValue                    0x08003274   Section        0  stm32f10x_wwdg.o(i.WWDG_SetWindowValue)
    i.__0printf$8                            0x0800329c   Section        0  printf8.o(i.__0printf$8)
    i.__ARM_fpclassify                       0x080032bc   Section        0  fpclassify.o(i.__ARM_fpclassify)
    i.__kernel_poly                          0x080032e4   Section        0  poly.o(i.__kernel_poly)
    i.__mathlib_dbl_infnan                   0x0800338e   Section        0  dunder.o(i.__mathlib_dbl_infnan)
    i.__mathlib_dbl_infnan2                  0x08003394   Section        0  dunder.o(i.__mathlib_dbl_infnan2)
    i.__mathlib_dbl_invalid                  0x08003398   Section        0  dunder.o(i.__mathlib_dbl_invalid)
    i.__mathlib_dbl_underflow                0x080033a4   Section        0  dunder.o(i.__mathlib_dbl_underflow)
    i.__scatterload_copy                     0x080033b4   Section       14  handlers.o(i.__scatterload_copy)
    i.__scatterload_null                     0x080033c2   Section        2  handlers.o(i.__scatterload_null)
    i.__scatterload_zeroinit                 0x080033c4   Section       14  handlers.o(i.__scatterload_zeroinit)
    i.__set_errno                            0x080033d4   Section        0  errno.o(i.__set_errno)
    i._control_walkingmotor_speed_byid       0x080033e0   Section        0  motor.o(i._control_walkingmotor_speed_byid)
    _control_walkingmotor_speed_byid         0x080033e1   Thumb Code   308  motor.o(i._control_walkingmotor_speed_byid)
    i._default_abort_proc                    0x0800353c   Section        0  boarddrv.o(i._default_abort_proc)
    _default_abort_proc                      0x0800353d   Thumb Code     4  boarddrv.o(i._default_abort_proc)
    i._delay_loop                            0x08003540   Section        0  softdelay.o(i._delay_loop)
    _delay_loop                              0x08003541   Thumb Code    16  softdelay.o(i._delay_loop)
    i._delay_ms                              0x08003550   Section        0  main.o(i._delay_ms)
    _delay_ms                                0x08003551   Thumb Code    24  main.o(i._delay_ms)
    i._delay_ms                              0x08003568   Section        0  beep.o(i._delay_ms)
    _delay_ms                                0x08003569   Thumb Code    24  beep.o(i._delay_ms)
    i._delay_ms                              0x08003580   Section        0  motor.o(i._delay_ms)
    _delay_ms                                0x08003581   Thumb Code    24  motor.o(i._delay_ms)
    i._delay_ms                              0x08003598   Section        0  exti.o(i._delay_ms)
    _delay_ms                                0x08003599   Thumb Code    24  exti.o(i._delay_ms)
    i._delay_ms                              0x080035b0   Section        0  mpu6050.o(i._delay_ms)
    _delay_ms                                0x080035b1   Thumb Code    24  mpu6050.o(i._delay_ms)
    i._delay_ms                              0x080035c8   Section        0  inv_mpu.o(i._delay_ms)
    _delay_ms                                0x080035c9   Thumb Code    24  inv_mpu.o(i._delay_ms)
    i._delay_us                              0x080035e0   Section        0  softdelay.o(i._delay_us)
    i._printf_core                           0x080035f8   Section        0  printf8.o(i._printf_core)
    _printf_core                             0x080035f9   Thumb Code   996  printf8.o(i._printf_core)
    i._printf_post_padding                   0x08003a08   Section        0  printf8.o(i._printf_post_padding)
    _printf_post_padding                     0x08003a09   Thumb Code    36  printf8.o(i._printf_post_padding)
    i._printf_pre_padding                    0x08003a2c   Section        0  printf8.o(i._printf_pre_padding)
    _printf_pre_padding                      0x08003a2d   Thumb Code    46  printf8.o(i._printf_pre_padding)
    i._refresh_walkingmotor_odometer         0x08003a5c   Section        0  motor.o(i._refresh_walkingmotor_odometer)
    _refresh_walkingmotor_odometer           0x08003a5d   Thumb Code   242  motor.o(i._refresh_walkingmotor_odometer)
    i._release_walkingmotor_l                0x08003b74   Section        0  motor.o(i._release_walkingmotor_l)
    _release_walkingmotor_l                  0x08003b75   Thumb Code    42  motor.o(i._release_walkingmotor_l)
    i._release_walkingmotor_r                0x08003ba8   Section        0  motor.o(i._release_walkingmotor_r)
    _release_walkingmotor_r                  0x08003ba9   Thumb Code    44  motor.o(i._release_walkingmotor_r)
    i._set_walkingmotor_duty                 0x08003bdc   Section        0  motor.o(i._set_walkingmotor_duty)
    _set_walkingmotor_duty                   0x08003bdd   Thumb Code    32  motor.o(i._set_walkingmotor_duty)
    i.accel_self_test                        0x08003bfc   Section        0  inv_mpu.o(i.accel_self_test)
    accel_self_test                          0x08003bfd   Thumb Code   164  inv_mpu.o(i.accel_self_test)
    i.asin                                   0x08003ca4   Section        0  asin.o(i.asin)
    i.atan                                   0x08003f14   Section        0  atan.o(i.atan)
    i.atan2                                  0x08004134   Section        0  atan2.o(i.atan2)
    i.control_walkingmotor_speed             0x080042b4   Section        0  motor.o(i.control_walkingmotor_speed)
    i.countbit                               0x080042c8   Section        0  motor.o(i.countbit)
    countbit                                 0x080042c9   Thumb Code    38  motor.o(i.countbit)
    i.decode_gesture                         0x080042f8   Section        0  inv_mpu_dmp_motion_driver.o(i.decode_gesture)
    decode_gesture                           0x080042f9   Thumb Code    94  inv_mpu_dmp_motion_driver.o(i.decode_gesture)
    i.dev_heartbeat                          0x0800435c   Section        0  main.o(i.dev_heartbeat)
    dev_heartbeat                            0x0800435d   Thumb Code   228  main.o(i.dev_heartbeat)
    i.disable_beep                           0x08004464   Section        0  beep.o(i.disable_beep)
    disable_beep                             0x08004465   Thumb Code    30  beep.o(i.disable_beep)
    i.disable_watchdog                       0x08004488   Section        0  watchdog.o(i.disable_watchdog)
    i.dmp_enable_6x_lp_quat                  0x0800449a   Section        0  inv_mpu_dmp_motion_driver.o(i.dmp_enable_6x_lp_quat)
    i.dmp_enable_feature                     0x080044d8   Section        0  inv_mpu_dmp_motion_driver.o(i.dmp_enable_feature)
    i.dmp_enable_gyro_cal                    0x080046f4   Section        0  inv_mpu_dmp_motion_driver.o(i.dmp_enable_gyro_cal)
    i.dmp_enable_lp_quat                     0x0800474c   Section        0  inv_mpu_dmp_motion_driver.o(i.dmp_enable_lp_quat)
    i.dmp_load_motion_driver_firmware        0x08004788   Section        0  inv_mpu_dmp_motion_driver.o(i.dmp_load_motion_driver_firmware)
    i.dmp_read_fifo                          0x080047a0   Section        0  inv_mpu_dmp_motion_driver.o(i.dmp_read_fifo)
    i.dmp_set_accel_bias                     0x0800496c   Section        0  inv_mpu_dmp_motion_driver.o(i.dmp_set_accel_bias)
    i.dmp_set_fifo_rate                      0x08004a9c   Section        0  inv_mpu_dmp_motion_driver.o(i.dmp_set_fifo_rate)
    i.dmp_set_gyro_bias                      0x08004b0c   Section        0  inv_mpu_dmp_motion_driver.o(i.dmp_set_gyro_bias)
    i.dmp_set_orientation                    0x08004c3c   Section        0  inv_mpu_dmp_motion_driver.o(i.dmp_set_orientation)
    i.dmp_set_shake_reject_thresh            0x08004d74   Section        0  inv_mpu_dmp_motion_driver.o(i.dmp_set_shake_reject_thresh)
    i.dmp_set_shake_reject_time              0x08004dac   Section        0  inv_mpu_dmp_motion_driver.o(i.dmp_set_shake_reject_time)
    i.dmp_set_shake_reject_timeout           0x08004dd2   Section        0  inv_mpu_dmp_motion_driver.o(i.dmp_set_shake_reject_timeout)
    i.dmp_set_tap_axes                       0x08004df8   Section        0  inv_mpu_dmp_motion_driver.o(i.dmp_set_tap_axes)
    i.dmp_set_tap_count                      0x08004e3e   Section        0  inv_mpu_dmp_motion_driver.o(i.dmp_set_tap_count)
    i.dmp_set_tap_thresh                     0x08004e64   Section        0  inv_mpu_dmp_motion_driver.o(i.dmp_set_tap_thresh)
    i.dmp_set_tap_time                       0x08005004   Section        0  inv_mpu_dmp_motion_driver.o(i.dmp_set_tap_time)
    i.dmp_set_tap_time_multi                 0x0800502a   Section        0  inv_mpu_dmp_motion_driver.o(i.dmp_set_tap_time_multi)
    i.drv_led_cmd                            0x08005050   Section        0  led.o(i.drv_led_cmd)
    drv_led_cmd                              0x08005051   Thumb Code  3472  led.o(i.drv_led_cmd)
    i.drv_led_init                           0x08005de4   Section        0  led.o(i.drv_led_init)
    i.drv_led_reset                          0x08005e50   Section        0  led.o(i.drv_led_reset)
    drv_led_reset                            0x08005e51   Thumb Code    10  led.o(i.drv_led_reset)
    i.drv_led_set                            0x08005e5c   Section        0  led.o(i.drv_led_set)
    i.drv_led_shutdown                       0x08005ee4   Section        0  led.o(i.drv_led_shutdown)
    i.enable_beep                            0x08005f4c   Section        0  beep.o(i.enable_beep)
    enable_beep                              0x08005f4d   Thumb Code    32  beep.o(i.enable_beep)
    i.enable_watchdog                        0x08005f70   Section        0  watchdog.o(i.enable_watchdog)
    i.encoder_l1_exti_cb                     0x08005f94   Section        0  motor.o(i.encoder_l1_exti_cb)
    encoder_l1_exti_cb                       0x08005f95   Thumb Code    12  motor.o(i.encoder_l1_exti_cb)
    i.encoder_r1_exti_cb                     0x08005fa4   Section        0  motor.o(i.encoder_r1_exti_cb)
    encoder_r1_exti_cb                       0x08005fa5   Thumb Code    12  motor.o(i.encoder_r1_exti_cb)
    i.enter_critical_section                 0x08005fb4   Section        0  boarddrv.o(i.enter_critical_section)
    enter_critical_section                   0x08005fb5   Thumb Code    12  boarddrv.o(i.enter_critical_section)
    i.enter_critical_section                 0x08005fc0   Section        0  motor.o(i.enter_critical_section)
    enter_critical_section                   0x08005fc1   Thumb Code    12  motor.o(i.enter_critical_section)
    i.exti_reg_callback                      0x08005fcc   Section        0  exti.o(i.exti_reg_callback)
    i.exti_unreg_callback                    0x08006084   Section        0  exti.o(i.exti_unreg_callback)
    i.fputc                                  0x08006138   Section        0  fputc.o(i.fputc)
    i.get_accel_prod_shift                   0x0800614c   Section        0  inv_mpu.o(i.get_accel_prod_shift)
    get_accel_prod_shift                     0x0800614d   Thumb Code   168  inv_mpu.o(i.get_accel_prod_shift)
    i.get_electricity                        0x08006200   Section        0  battery.o(i.get_electricity)
    i.get_electricitypercentage              0x08006254   Section        0  battery.o(i.get_electricitypercentage)
    i.get_st_biases                          0x08006260   Section        0  inv_mpu.o(i.get_st_biases)
    get_st_biases                            0x08006261   Thumb Code  1132  inv_mpu.o(i.get_st_biases)
    i.get_walkingmotor_lspeed_mm             0x080066d0   Section        0  motor.o(i.get_walkingmotor_lspeed_mm)
    i.get_walkingmotor_lspeed_set            0x080066f0   Section        0  motor.o(i.get_walkingmotor_lspeed_set)
    get_walkingmotor_lspeed_set              0x080066f1   Thumb Code     6  motor.o(i.get_walkingmotor_lspeed_set)
    i.get_walkingmotor_rspeed_mm             0x080066fc   Section        0  motor.o(i.get_walkingmotor_rspeed_mm)
    i.get_walkingmotor_rspeed_set            0x0800671c   Section        0  motor.o(i.get_walkingmotor_rspeed_set)
    get_walkingmotor_rspeed_set              0x0800671d   Thumb Code     6  motor.o(i.get_walkingmotor_rspeed_set)
    i.getms                                  0x08006728   Section        0  boarddrv.o(i.getms)
    i.getus                                  0x08006734   Section        0  boarddrv.o(i.getus)
    i.gyro_self_test                         0x0800678c   Section        0  inv_mpu.o(i.gyro_self_test)
    gyro_self_test                           0x0800678d   Thumb Code   256  inv_mpu.o(i.gyro_self_test)
    i.heartbeat_battery                      0x0800689c   Section        0  battery.o(i.heartbeat_battery)
    i.heartbeat_beep                         0x08006914   Section        0  beep.o(i.heartbeat_beep)
    i.init_battery                           0x08006a40   Section        0  battery.o(i.init_battery)
    i.init_beep                              0x08006a74   Section        0  beep.o(i.init_beep)
    i.init_board                             0x08006b38   Section        0  hwconf.o(i.init_board)
    i.init_dev                               0x08006b64   Section        0  main.o(i.init_dev)
    init_dev                                 0x08006b65   Thumb Code    86  main.o(i.init_dev)
    i.init_extix                             0x08006bdc   Section        0  motor.o(i.init_extix)
    init_extix                               0x08006bdd   Thumb Code   194  motor.o(i.init_extix)
    i.init_walkingmotor_odometer             0x08006cb8   Section        0  motor.o(i.init_walkingmotor_odometer)
    i.inv_orientation_matrix_to_scalar       0x08006d00   Section        0  inv_mpu.o(i.inv_orientation_matrix_to_scalar)
    i.inv_row_2_scale                        0x08006d28   Section        0  inv_mpu.o(i.inv_row_2_scale)
    i.leave_critical_section                 0x08006d76   Section        0  boarddrv.o(i.leave_critical_section)
    leave_critical_section                   0x08006d77   Thumb Code    10  boarddrv.o(i.leave_critical_section)
    i.leave_critical_section                 0x08006d80   Section        0  motor.o(i.leave_critical_section)
    leave_critical_section                   0x08006d81   Thumb Code    10  motor.o(i.leave_critical_section)
    i.led_heartbeat                          0x08006d8c   Section        0  led.o(i.led_heartbeat)
    i.loop                                   0x08006e58   Section        0  main.o(i.loop)
    loop                                     0x08006e59   Thumb Code    20  main.o(i.loop)
    i.main                                   0x08006e6c   Section        0  main.o(i.main)
    i.mark_watchdog                          0x08006eb2   Section        0  watchdog.o(i.mark_watchdog)
    i.mget_ms                                0x08006ebc   Section        0  inv_mpu.o(i.mget_ms)
    i.mpu_configure_fifo                     0x08006ec0   Section        0  inv_mpu.o(i.mpu_configure_fifo)
    i.mpu_dmp_get_data                       0x08006f30   Section        0  inv_mpu.o(i.mpu_dmp_get_data)
    i.mpu_dmp_init                           0x08007154   Section        0  inv_mpu.o(i.mpu_dmp_init)
    i.mpu_get_accel_fsr                      0x080071f4   Section        0  inv_mpu.o(i.mpu_get_accel_fsr)
    i.mpu_get_accel_sens                     0x08007240   Section        0  inv_mpu.o(i.mpu_get_accel_sens)
    i.mpu_get_fifo_config                    0x08007294   Section        0  inv_mpu.o(i.mpu_get_fifo_config)
    i.mpu_get_gyro_fsr                       0x080072a4   Section        0  inv_mpu.o(i.mpu_get_gyro_fsr)
    i.mpu_get_gyro_sens                      0x080072e8   Section        0  inv_mpu.o(i.mpu_get_gyro_sens)
    i.mpu_get_lpf                            0x08007338   Section        0  inv_mpu.o(i.mpu_get_lpf)
    i.mpu_get_sample_rate                    0x08007388   Section        0  inv_mpu.o(i.mpu_get_sample_rate)
    i.mpu_init                               0x080073a8   Section        0  inv_mpu.o(i.mpu_init)
    i.mpu_load_firmware                      0x08007598   Section        0  inv_mpu.o(i.mpu_load_firmware)
    i.mpu_lp_accel_mode                      0x08007650   Section        0  inv_mpu.o(i.mpu_lp_accel_mode)
    i.mpu_read_fifo_stream                   0x08007730   Section        0  inv_mpu.o(i.mpu_read_fifo_stream)
    i.mpu_read_mem                           0x080077f0   Section        0  inv_mpu.o(i.mpu_read_mem)
    i.mpu_reset_fifo                         0x08007870   Section        0  inv_mpu.o(i.mpu_reset_fifo)
    i.mpu_run_self_test                      0x08007a38   Section        0  inv_mpu.o(i.mpu_run_self_test)
    i.mpu_set_accel_fsr                      0x08007b54   Section        0  inv_mpu.o(i.mpu_set_accel_fsr)
    i.mpu_set_bypass                         0x08007bd8   Section        0  inv_mpu.o(i.mpu_set_bypass)
    i.mpu_set_dmp_state                      0x08007d24   Section        0  inv_mpu.o(i.mpu_set_dmp_state)
    i.mpu_set_gyro_fsr                       0x08007db4   Section        0  inv_mpu.o(i.mpu_set_gyro_fsr)
    i.mpu_set_int_latched                    0x08007e3c   Section        0  inv_mpu.o(i.mpu_set_int_latched)
    i.mpu_set_lpf                            0x08007ea8   Section        0  inv_mpu.o(i.mpu_set_lpf)
    i.mpu_set_sample_rate                    0x08007f2c   Section        0  inv_mpu.o(i.mpu_set_sample_rate)
    i.mpu_set_sensors                        0x08007fc8   Section        0  inv_mpu.o(i.mpu_set_sensors)
    i.mpu_write_mem                          0x08008098   Section        0  inv_mpu.o(i.mpu_write_mem)
    i.on_abort_mode                          0x08008118   Section        0  beep.o(i.on_abort_mode)
    i.pinMode                                0x08008170   Section        0  motor.o(i.pinMode)
    pinMode                                  0x08008171   Thumb Code    32  motor.o(i.pinMode)
    i.pinMode                                0x08008190   Section        0  sonar.o(i.pinMode)
    pinMode                                  0x08008191   Thumb Code    32  sonar.o(i.pinMode)
    i.play_poweron                           0x080081b0   Section        0  beep.o(i.play_poweron)
    i.run_self_test                          0x08008208   Section        0  inv_mpu.o(i.run_self_test)
    i.set_board_systick                      0x0800829c   Section        0  hwconf.o(i.set_board_systick)
    set_board_systick                        0x0800829d   Thumb Code    62  hwconf.o(i.set_board_systick)
    i.set_int_enable                         0x080082e8   Section        0  inv_mpu.o(i.set_int_enable)
    set_int_enable                           0x080082e9   Thumb Code   138  inv_mpu.o(i.set_int_enable)
    i.set_walkingmotor_lduty                 0x08008378   Section        0  motor.o(i.set_walkingmotor_lduty)
    i.set_walkingmotor_rduty                 0x0800841c   Section        0  motor.o(i.set_walkingmotor_rduty)
    i.set_walkingmotor_speed                 0x080084c4   Section        0  motor.o(i.set_walkingmotor_speed)
    i.softdelay_calibrate                    0x080084d0   Section        0  softdelay.o(i.softdelay_calibrate)
    i.sonar_distance                         0x08008524   Section        0  sonar.o(i.sonar_distance)
    i.sonar_exti_cb                          0x08008604   Section        0  sonar.o(i.sonar_exti_cb)
    sonar_exti_cb                            0x08008605   Thumb Code   254  sonar.o(i.sonar_exti_cb)
    i.sonar_get                              0x08008714   Section        0  sonar.o(i.sonar_get)
    i.sonar_heartbeat                        0x0800873c   Section        0  sonar.o(i.sonar_heartbeat)
    i.sonar_init                             0x0800890c   Section        0  sonar.o(i.sonar_init)
    i.sonar_shutdown                         0x08008970   Section        0  sonar.o(i.sonar_shutdown)
    sonar_shutdown                           0x08008971   Thumb Code    38  sonar.o(i.sonar_shutdown)
    i.sonar_trigger                          0x0800899c   Section        0  sonar.o(i.sonar_trigger)
    sonar_trigger                            0x0800899d   Thumb Code    74  sonar.o(i.sonar_trigger)
    i.speedctl_heartbeat                     0x080089f0   Section        0  motor.o(i.speedctl_heartbeat)
    i.sqrt                                   0x08008a18   Section        0  sqrt.o(i.sqrt)
    i.stalldetector_heartbeat                0x08008a64   Section        0  motor.o(i.stalldetector_heartbeat)
    i.stalldetector_init                     0x08008b44   Section        0  motor.o(i.stalldetector_init)
    i.start_beep                             0x08008b70   Section        0  beep.o(i.start_beep)
    i.stop_beep                              0x08008b78   Section        0  beep.o(i.stop_beep)
    i.test_button_callback                   0x08008b80   Section        0  motor.o(i.test_button_callback)
    i.usart3_init                            0x08008c48   Section        0  usart.o(i.usart3_init)
    .constdata                               0x08008da8   Section       88  motor.o(.constdata)
    _motor_cfg                               0x08008da8   Data          88  motor.o(.constdata)
    .constdata                               0x08008e00   Section       80  sonar.o(.constdata)
    g_sonar_cfg                              0x08008e00   Data          80  sonar.o(.constdata)
    .constdata                               0x08008e50   Section        4  protocol.o(.constdata)
    .constdata                               0x08008e54   Section       80  inv_mpu.o(.constdata)
    .constdata                               0x08008ea4   Section     3062  inv_mpu_dmp_motion_driver.o(.constdata)
    dmp_memory                               0x08008ea4   Data        3062  inv_mpu_dmp_motion_driver.o(.constdata)
    .constdata                               0x08009aa0   Section       80  asin.o(.constdata)
    pS                                       0x08009aa0   Data          48  asin.o(.constdata)
    qS                                       0x08009ad0   Data          32  asin.o(.constdata)
    .constdata                               0x08009af0   Section      152  atan.o(.constdata)
    atanhi                                   0x08009af0   Data          32  atan.o(.constdata)
    atanlo                                   0x08009b10   Data          32  atan.o(.constdata)
    aTodd                                    0x08009b30   Data          40  atan.o(.constdata)
    aTeven                                   0x08009b58   Data          48  atan.o(.constdata)
    .constdata                               0x08009b88   Section        8  qnan.o(.constdata)
    .conststring                             0x08009b90   Section       77  inv_mpu.o(.conststring)
    .data                                    0x20000000   Section       48  main.o(.data)
    .data                                    0x20000030   Section        8  battery.o(.data)
    batteryFrequency                         0x20000030   Data           4  battery.o(.data)
    batteryElectricityPercentage             0x20000034   Data           4  battery.o(.data)
    .data                                    0x20000038   Section       48  beep.o(.data)
    _delay                                   0x20000038   Data           4  beep.o(.data)
    _startMs                                 0x2000003c   Data           4  beep.o(.data)
    _beeper_ticks                            0x20000040   Data           4  beep.o(.data)
    _beeper_status                           0x20000044   Data           1  beep.o(.data)
    HighFrequency                            0x20000048   Data          32  beep.o(.data)
    .data                                    0x20000068   Section       12  boarddrv.o(.data)
    alert_flg                                0x20000068   Data           1  boarddrv.o(.data)
    _abort_proc                              0x2000006c   Data           4  boarddrv.o(.data)
    _systick_val                             0x20000070   Data           4  boarddrv.o(.data)
    .data                                    0x20000074   Section       17  led.o(.data)
    led_r                                    0x20000074   Data           4  led.o(.data)
    led_g                                    0x20000078   Data           4  led.o(.data)
    led_b                                    0x2000007c   Data           4  led.o(.data)
    _led_ticks                               0x20000080   Data           4  led.o(.data)
    _led_status                              0x20000084   Data           1  led.o(.data)
    .data                                    0x20000088   Section      124  motor.o(.data)
    _motorDeltaTicks                         0x20000088   Data           8  motor.o(.data)
    _motorDistAccumulated                    0x20000090   Data           8  motor.o(.data)
    _motorDistTailing                        0x20000098   Data           8  motor.o(.data)
    _encoderTicksDelta                       0x200000a0   Data           8  motor.o(.data)
    _lastEncoderTicksDelta                   0x200000a8   Data           8  motor.o(.data)
    _lastOdometerSpeedAbs                    0x200000b0   Data           8  motor.o(.data)
    _motorCtrlStates                         0x200000b8   Data           2  motor.o(.data)
    _motorSpeedMm                            0x200000bc   Data           8  motor.o(.data)
    speedLastErr                             0x200000c4   Data           8  motor.o(.data)
    speedErri                                0x200000cc   Data           8  motor.o(.data)
    speed_PWMOUT                             0x200000d4   Data           8  motor.o(.data)
    _stallFilterBlindModeTS                  0x200000dc   Data           8  motor.o(.data)
    _stallBitmap                             0x200000e4   Data           1  motor.o(.data)
    _stallDetectorTS                         0x200000e8   Data           4  motor.o(.data)
    _stallDetectorFilter                     0x200000ec   Data           8  motor.o(.data)
    speedctl_frequency                       0x20000100   Data           4  motor.o(.data)
    .data                                    0x20000104   Section        4  softdelay.o(.data)
    .data                                    0x20000108   Section       11  usart.o(.data)
    .data                                    0x20000113   Section        7  exti.o(.data)
    g_irq_flag                               0x20000113   Data           7  exti.o(.data)
    .data                                    0x2000011a   Section        1  sonar.o(.data)
    g_sonar_ch                               0x2000011a   Data           1  sonar.o(.data)
    .data                                    0x2000011c   Section       70  protocol.o(.data)
    .data                                    0x20000164   Section       53  inv_mpu.o(.data)
    st                                       0x20000164   Data          44  inv_mpu.o(.data)
    gyro_orientation                         0x20000190   Data           9  inv_mpu.o(.data)
    .data                                    0x2000019c   Section       80  filters.o(.data)
    .data                                    0x200001ec   Section        4  hwconf.o(.data)
    .data                                    0x200001f0   Section       20  stm32f10x_rcc.o(.data)
    APBAHBPrescTable                         0x200001f0   Data          16  stm32f10x_rcc.o(.data)
    ADCPrescTable                            0x20000200   Data           4  stm32f10x_rcc.o(.data)
    .data                                    0x20000204   Section        4  stdout.o(.data)
    .data                                    0x20000208   Section        4  errno.o(.data)
    _errno                                   0x20000208   Data           4  errno.o(.data)
    .bss                                     0x2000020c   Section      800  usart.o(.bss)
    .bss                                     0x2000052c   Section       64  exti.o(.bss)
    g_exti_cb                                0x2000052c   Data          64  exti.o(.bss)
    .bss                                     0x2000056c   Section       80  sonar.o(.bss)
    g_sonar                                  0x2000056c   Data          80  sonar.o(.bss)
    .bss                                     0x200005bc   Section       12  protocol.o(.bss)
    .bss                                     0x200005c8   Section       16  inv_mpu_dmp_motion_driver.o(.bss)
    dmp                                      0x200005c8   Data          16  inv_mpu_dmp_motion_driver.o(.bss)
    .bss                                     0x200005d8   Section       16  filters.o(.bss)
    STACK                                    0x200005e8   Section     1024  startup_stm32f10x_hd.o(STACK)

    Global Symbols

    Symbol Name                              Value     Ov Type        Size  Object(Section)

    BuildAttributes$$THM_ISAv4$P$D$K$B$S$PE$A:L22UL41UL21$X:L11$S22US41US21$IEEE1$IW$USESV6$~STKCKD$USESV7$~SHL$OTIME$ROPI$IEEEX$EBA8$MICROLIB$REQ8$PRES8$EABIv2 0x00000000   Number         0  anon$$obj.o ABSOLUTE
    __ARM_use_no_argv                        0x00000000   Number         0  main.o ABSOLUTE
    _printf_a                                0x00000000   Number         0  stubs.o ABSOLUTE
    _printf_c                                0x00000000   Number         0  stubs.o ABSOLUTE
    _printf_charcount                        0x00000000   Number         0  stubs.o ABSOLUTE
    _printf_d                                0x00000000   Number         0  stubs.o ABSOLUTE
    _printf_e                                0x00000000   Number         0  stubs.o ABSOLUTE
    _printf_f                                0x00000000   Number         0  stubs.o ABSOLUTE
    _printf_flags                            0x00000000   Number         0  stubs.o ABSOLUTE
    _printf_fp_dec                           0x00000000   Number         0  stubs.o ABSOLUTE
    _printf_fp_hex                           0x00000000   Number         0  stubs.o ABSOLUTE
    _printf_g                                0x00000000   Number         0  stubs.o ABSOLUTE
    _printf_i                                0x00000000   Number         0  stubs.o ABSOLUTE
    _printf_int_dec                          0x00000000   Number         0  stubs.o ABSOLUTE
    _printf_l                                0x00000000   Number         0  stubs.o ABSOLUTE
    _printf_lc                               0x00000000   Number         0  stubs.o ABSOLUTE
    _printf_ll                               0x00000000   Number         0  stubs.o ABSOLUTE
    _printf_lld                              0x00000000   Number         0  stubs.o ABSOLUTE
    _printf_lli                              0x00000000   Number         0  stubs.o ABSOLUTE
    _printf_llo                              0x00000000   Number         0  stubs.o ABSOLUTE
    _printf_llu                              0x00000000   Number         0  stubs.o ABSOLUTE
    _printf_llx                              0x00000000   Number         0  stubs.o ABSOLUTE
    _printf_longlong_dec                     0x00000000   Number         0  stubs.o ABSOLUTE
    _printf_longlong_hex                     0x00000000   Number         0  stubs.o ABSOLUTE
    _printf_longlong_oct                     0x00000000   Number         0  stubs.o ABSOLUTE
    _printf_ls                               0x00000000   Number         0  stubs.o ABSOLUTE
    _printf_mbtowc                           0x00000000   Number         0  stubs.o ABSOLUTE
    _printf_n                                0x00000000   Number         0  stubs.o ABSOLUTE
    _printf_o                                0x00000000   Number         0  stubs.o ABSOLUTE
    _printf_p                                0x00000000   Number         0  stubs.o ABSOLUTE
    _printf_percent                          0x00000000   Number         0  stubs.o ABSOLUTE
    _printf_pre_padding                      0x00000000   Number         0  stubs.o ABSOLUTE
    _printf_return_value                     0x00000000   Number         0  stubs.o ABSOLUTE
    _printf_s                                0x00000000   Number         0  stubs.o ABSOLUTE
    _printf_sizespec                         0x00000000   Number         0  stubs.o ABSOLUTE
    _printf_str                              0x00000000   Number         0  stubs.o ABSOLUTE
    _printf_truncate_signed                  0x00000000   Number         0  stubs.o ABSOLUTE
    _printf_truncate_unsigned                0x00000000   Number         0  stubs.o ABSOLUTE
    _printf_u                                0x00000000   Number         0  stubs.o ABSOLUTE
    _printf_wc                               0x00000000   Number         0  stubs.o ABSOLUTE
    _printf_wctomb                           0x00000000   Number         0  stubs.o ABSOLUTE
    _printf_widthprec                        0x00000000   Number         0  stubs.o ABSOLUTE
    _printf_x                                0x00000000   Number         0  stubs.o ABSOLUTE
    __cpp_initialize__aeabi_                  - Undefined Weak Reference
    __cxa_finalize                            - Undefined Weak Reference
    _clock_init                               - Undefined Weak Reference
    _microlib_exit                            - Undefined Weak Reference
    __Vectors_Size                           0x00000130   Number         0  startup_stm32f10x_hd.o ABSOLUTE
    __Vectors                                0x08000000   Data           4  startup_stm32f10x_hd.o(RESET)
    __Vectors_End                            0x08000130   Data           0  startup_stm32f10x_hd.o(RESET)
    __main                                   0x08000131   Thumb Code     0  entry.o(.ARM.Collect$$$$00000000)
    _main_stk                                0x08000131   Thumb Code     0  entry2.o(.ARM.Collect$$$$00000001)
    _main_scatterload                        0x08000135   Thumb Code     0  entry5.o(.ARM.Collect$$$$00000004)
    __main_after_scatterload                 0x08000139   Thumb Code     0  entry5.o(.ARM.Collect$$$$00000004)
    _main_clock                              0x08000139   Thumb Code     0  entry7b.o(.ARM.Collect$$$$00000008)
    _main_cpp_init                           0x08000139   Thumb Code     0  entry8b.o(.ARM.Collect$$$$0000000A)
    _main_init                               0x08000139   Thumb Code     0  entry9a.o(.ARM.Collect$$$$0000000B)
    __rt_final_cpp                           0x08000141   Thumb Code     0  entry10a.o(.ARM.Collect$$$$0000000D)
    __rt_final_exit                          0x08000141   Thumb Code     0  entry11a.o(.ARM.Collect$$$$0000000F)
    Reset_Handler                            0x08000145   Thumb Code     8  startup_stm32f10x_hd.o(.text)
    ADC1_2_IRQHandler                        0x0800015f   Thumb Code     0  startup_stm32f10x_hd.o(.text)
    ADC3_IRQHandler                          0x0800015f   Thumb Code     0  startup_stm32f10x_hd.o(.text)
    CAN1_RX1_IRQHandler                      0x0800015f   Thumb Code     0  startup_stm32f10x_hd.o(.text)
    CAN1_SCE_IRQHandler                      0x0800015f   Thumb Code     0  startup_stm32f10x_hd.o(.text)
    DMA1_Channel1_IRQHandler                 0x0800015f   Thumb Code     0  startup_stm32f10x_hd.o(.text)
    DMA1_Channel2_IRQHandler                 0x0800015f   Thumb Code     0  startup_stm32f10x_hd.o(.text)
    DMA1_Channel3_IRQHandler                 0x0800015f   Thumb Code     0  startup_stm32f10x_hd.o(.text)
    DMA1_Channel4_IRQHandler                 0x0800015f   Thumb Code     0  startup_stm32f10x_hd.o(.text)
    DMA1_Channel5_IRQHandler                 0x0800015f   Thumb Code     0  startup_stm32f10x_hd.o(.text)
    DMA1_Channel6_IRQHandler                 0x0800015f   Thumb Code     0  startup_stm32f10x_hd.o(.text)
    DMA1_Channel7_IRQHandler                 0x0800015f   Thumb Code     0  startup_stm32f10x_hd.o(.text)
    DMA2_Channel1_IRQHandler                 0x0800015f   Thumb Code     0  startup_stm32f10x_hd.o(.text)
    DMA2_Channel2_IRQHandler                 0x0800015f   Thumb Code     0  startup_stm32f10x_hd.o(.text)
    DMA2_Channel3_IRQHandler                 0x0800015f   Thumb Code     0  startup_stm32f10x_hd.o(.text)
    DMA2_Channel4_5_IRQHandler               0x0800015f   Thumb Code     0  startup_stm32f10x_hd.o(.text)
    FLASH_IRQHandler                         0x0800015f   Thumb Code     0  startup_stm32f10x_hd.o(.text)
    FSMC_IRQHandler                          0x0800015f   Thumb Code     0  startup_stm32f10x_hd.o(.text)
    I2C1_ER_IRQHandler                       0x0800015f   Thumb Code     0  startup_stm32f10x_hd.o(.text)
    I2C1_EV_IRQHandler                       0x0800015f   Thumb Code     0  startup_stm32f10x_hd.o(.text)
    I2C2_ER_IRQHandler                       0x0800015f   Thumb Code     0  startup_stm32f10x_hd.o(.text)
    I2C2_EV_IRQHandler                       0x0800015f   Thumb Code     0  startup_stm32f10x_hd.o(.text)
    PVD_IRQHandler                           0x0800015f   Thumb Code     0  startup_stm32f10x_hd.o(.text)
    RCC_IRQHandler                           0x0800015f   Thumb Code     0  startup_stm32f10x_hd.o(.text)
    RTCAlarm_IRQHandler                      0x0800015f   Thumb Code     0  startup_stm32f10x_hd.o(.text)
    RTC_IRQHandler                           0x0800015f   Thumb Code     0  startup_stm32f10x_hd.o(.text)
    SDIO_IRQHandler                          0x0800015f   Thumb Code     0  startup_stm32f10x_hd.o(.text)
    SPI1_IRQHandler                          0x0800015f   Thumb Code     0  startup_stm32f10x_hd.o(.text)
    SPI2_IRQHandler                          0x0800015f   Thumb Code     0  startup_stm32f10x_hd.o(.text)
    SPI3_IRQHandler                          0x0800015f   Thumb Code     0  startup_stm32f10x_hd.o(.text)
    TAMPER_IRQHandler                        0x0800015f   Thumb Code     0  startup_stm32f10x_hd.o(.text)
    TIM1_BRK_IRQHandler                      0x0800015f   Thumb Code     0  startup_stm32f10x_hd.o(.text)
    TIM1_CC_IRQHandler                       0x0800015f   Thumb Code     0  startup_stm32f10x_hd.o(.text)
    TIM1_TRG_COM_IRQHandler                  0x0800015f   Thumb Code     0  startup_stm32f10x_hd.o(.text)
    TIM1_UP_IRQHandler                       0x0800015f   Thumb Code     0  startup_stm32f10x_hd.o(.text)
    TIM2_IRQHandler                          0x0800015f   Thumb Code     0  startup_stm32f10x_hd.o(.text)
    TIM3_IRQHandler                          0x0800015f   Thumb Code     0  startup_stm32f10x_hd.o(.text)
    TIM4_IRQHandler                          0x0800015f   Thumb Code     0  startup_stm32f10x_hd.o(.text)
    TIM5_IRQHandler                          0x0800015f   Thumb Code     0  startup_stm32f10x_hd.o(.text)
    TIM6_IRQHandler                          0x0800015f   Thumb Code     0  startup_stm32f10x_hd.o(.text)
    TIM7_IRQHandler                          0x0800015f   Thumb Code     0  startup_stm32f10x_hd.o(.text)
    TIM8_BRK_IRQHandler                      0x0800015f   Thumb Code     0  startup_stm32f10x_hd.o(.text)
    TIM8_CC_IRQHandler                       0x0800015f   Thumb Code     0  startup_stm32f10x_hd.o(.text)
    TIM8_TRG_COM_IRQHandler                  0x0800015f   Thumb Code     0  startup_stm32f10x_hd.o(.text)
    TIM8_UP_IRQHandler                       0x0800015f   Thumb Code     0  startup_stm32f10x_hd.o(.text)
    UART5_IRQHandler                         0x0800015f   Thumb Code     0  startup_stm32f10x_hd.o(.text)
    USART1_IRQHandler                        0x0800015f   Thumb Code     0  startup_stm32f10x_hd.o(.text)
    USBWakeUp_IRQHandler                     0x0800015f   Thumb Code     0  startup_stm32f10x_hd.o(.text)
    USB_HP_CAN1_TX_IRQHandler                0x0800015f   Thumb Code     0  startup_stm32f10x_hd.o(.text)
    USB_LP_CAN1_RX0_IRQHandler               0x0800015f   Thumb Code     0  startup_stm32f10x_hd.o(.text)
    WWDG_IRQHandler                          0x0800015f   Thumb Code     0  startup_stm32f10x_hd.o(.text)
    __aeabi_uldivmod                         0x08000169   Thumb Code    98  uldiv.o(.text)
    __aeabi_ldivmod                          0x080001cb   Thumb Code    98  ldiv.o(.text)
    __aeabi_memset                           0x0800022d   Thumb Code    14  memseta.o(.text)
    __aeabi_memset4                          0x0800022d   Thumb Code     0  memseta.o(.text)
    __aeabi_memset8                          0x0800022d   Thumb Code     0  memseta.o(.text)
    __aeabi_memclr                           0x0800023b   Thumb Code     4  memseta.o(.text)
    __aeabi_memclr4                          0x0800023b   Thumb Code     0  memseta.o(.text)
    __aeabi_memclr8                          0x0800023b   Thumb Code     0  memseta.o(.text)
    _memset$wrapper                          0x0800023f   Thumb Code    18  memseta.o(.text)
    memcmp                                   0x08000251   Thumb Code    26  memcmp.o(.text)
    __aeabi_fadd                             0x0800026b   Thumb Code   164  fadd.o(.text)
    __aeabi_fsub                             0x0800030f   Thumb Code     6  fadd.o(.text)
    __aeabi_frsub                            0x08000315   Thumb Code     6  fadd.o(.text)
    __aeabi_fmul                             0x0800031b   Thumb Code   100  fmul.o(.text)
    __aeabi_fdiv                             0x0800037f   Thumb Code   124  fdiv.o(.text)
    __aeabi_dadd                             0x080003fb   Thumb Code   322  dadd.o(.text)
    __aeabi_dsub                             0x0800053d   Thumb Code     6  dadd.o(.text)
    __aeabi_drsub                            0x08000543   Thumb Code     6  dadd.o(.text)
    __aeabi_dmul                             0x08000549   Thumb Code   228  dmul.o(.text)
    __aeabi_ddiv                             0x0800062d   Thumb Code   222  ddiv.o(.text)
    __aeabi_i2f                              0x0800070b   Thumb Code    18  fflti.o(.text)
    __aeabi_ui2f                             0x0800071d   Thumb Code    10  ffltui.o(.text)
    __aeabi_i2d                              0x08000727   Thumb Code    34  dflti.o(.text)
    __aeabi_ui2d                             0x08000749   Thumb Code    26  dfltui.o(.text)
    __aeabi_f2iz                             0x08000763   Thumb Code    50  ffixi.o(.text)
    __aeabi_f2uiz                            0x08000795   Thumb Code    40  ffixui.o(.text)
    __aeabi_f2d                              0x080007bd   Thumb Code    38  f2d.o(.text)
    __aeabi_d2f                              0x080007e3   Thumb Code    56  d2f.o(.text)
    __aeabi_cfcmpeq                          0x0800081d   Thumb Code     0  cfcmple.o(.text)
    __aeabi_cfcmple                          0x0800081d   Thumb Code    20  cfcmple.o(.text)
    __aeabi_cfrcmple                         0x08000831   Thumb Code    20  cfrcmple.o(.text)
    __aeabi_llsl                             0x08000845   Thumb Code    30  llshl.o(.text)
    _ll_shift_l                              0x08000845   Thumb Code     0  llshl.o(.text)
    __aeabi_llsr                             0x08000863   Thumb Code    32  llushr.o(.text)
    _ll_ushift_r                             0x08000863   Thumb Code     0  llushr.o(.text)
    __aeabi_lasr                             0x08000883   Thumb Code    36  llsshr.o(.text)
    _ll_sshift_r                             0x08000883   Thumb Code     0  llsshr.o(.text)
    __I$use$fp                               0x080008a7   Thumb Code     0  iusefp.o(.text)
    _float_round                             0x080008a7   Thumb Code    18  fepilogue.o(.text)
    _float_epilogue                          0x080008b9   Thumb Code    92  fepilogue.o(.text)
    _double_round                            0x08000915   Thumb Code    30  depilogue.o(.text)
    _double_epilogue                         0x08000933   Thumb Code   156  depilogue.o(.text)
    __ARM_scalbn                             0x080009cf   Thumb Code    46  dscalb.o(.text)
    scalbn                                   0x080009cf   Thumb Code     0  dscalb.o(.text)
    __scatterload                            0x080009fd   Thumb Code    28  init.o(.text)
    __scatterload_rt2                        0x080009fd   Thumb Code     0  init.o(.text)
    __I$use$semihosting$fputc                0x08000a21   Thumb Code     0  iusesemip.o(.text)
    __semihosting_library_function           0x08000a21   Thumb Code     0  semi.o(.text)
    _dsqrt                                   0x08000a21   Thumb Code   162  dsqrt.o(.text)
    __decompress                             0x08000ac3   Thumb Code     0  __dczerorl.o(.text)
    __decompress0                            0x08000ac3   Thumb Code    58  __dczerorl.o(.text)
    ADC_Cmd                                  0x08000afd   Thumb Code    22  stm32f10x_adc.o(i.ADC_Cmd)
    ADC_DMACmd                               0x08000bed   Thumb Code    22  stm32f10x_adc.o(i.ADC_DMACmd)
    ADC_GetCalibrationStatus                 0x08000c03   Thumb Code    20  stm32f10x_adc.o(i.ADC_GetCalibrationStatus)
    ADC_GetResetCalibrationStatus            0x08000c17   Thumb Code    20  stm32f10x_adc.o(i.ADC_GetResetCalibrationStatus)
    ADC_Init                                 0x08000c2d   Thumb Code    70  stm32f10x_adc.o(i.ADC_Init)
    ADC_RegularChannelConfig                 0x08000c7d   Thumb Code   184  stm32f10x_adc.o(i.ADC_RegularChannelConfig)
    ADC_ResetCalibration                     0x08000d35   Thumb Code    10  stm32f10x_adc.o(i.ADC_ResetCalibration)
    ADC_SoftwareStartConvCmd                 0x08000d3f   Thumb Code    22  stm32f10x_adc.o(i.ADC_SoftwareStartConvCmd)
    ADC_StartCalibration                     0x08000d55   Thumb Code    10  stm32f10x_adc.o(i.ADC_StartCalibration)
    BusFault_Handler                         0x08000d5f   Thumb Code     4  stm32f10x_it.o(i.BusFault_Handler)
    DMA_ClearFlag                            0x08000d65   Thumb Code    18  stm32f10x_dma.o(i.DMA_ClearFlag)
    DMA_Cmd                                  0x08000d81   Thumb Code    24  stm32f10x_dma.o(i.DMA_Cmd)
    DMA_DeInit                               0x08000d99   Thumb Code   324  stm32f10x_dma.o(i.DMA_DeInit)
    DMA_Enable                               0x08000ee5   Thumb Code    30  usart.o(i.DMA_Enable)
    DMA_GetFlagStatus                        0x08000f05   Thumb Code    36  stm32f10x_dma.o(i.DMA_GetFlagStatus)
    DMA_Init                                 0x08000f31   Thumb Code    60  stm32f10x_dma.o(i.DMA_Init)
    DMA_SetCurrDataCounter                   0x08000f6d   Thumb Code     4  stm32f10x_dma.o(i.DMA_SetCurrDataCounter)
    DebugMon_Handler                         0x08000f71   Thumb Code     2  stm32f10x_it.o(i.DebugMon_Handler)
    EXTI0_IRQHandler                         0x08000f75   Thumb Code    32  exti.o(i.EXTI0_IRQHandler)
    EXTI15_10_IRQHandler                     0x08000f9d   Thumb Code    64  exti.o(i.EXTI15_10_IRQHandler)
    EXTI1_IRQHandler                         0x08000fe5   Thumb Code    32  exti.o(i.EXTI1_IRQHandler)
    EXTI2_IRQHandler                         0x0800100d   Thumb Code    32  exti.o(i.EXTI2_IRQHandler)
    EXTI3_IRQHandler                         0x08001035   Thumb Code    32  exti.o(i.EXTI3_IRQHandler)
    EXTI4_IRQHandler                         0x0800105d   Thumb Code    32  exti.o(i.EXTI4_IRQHandler)
    EXTI9_5_IRQHandler                       0x08001085   Thumb Code    54  exti.o(i.EXTI9_5_IRQHandler)
    EXTI_ClearITPendingBit                   0x080010c5   Thumb Code     6  stm32f10x_exti.o(i.EXTI_ClearITPendingBit)
    EXTI_Init                                0x080010d1   Thumb Code   142  stm32f10x_exti.o(i.EXTI_Init)
    GPIO_EXTILineConfig                      0x08001165   Thumb Code    60  stm32f10x_gpio.o(i.GPIO_EXTILineConfig)
    GPIO_Init                                0x080011a5   Thumb Code   278  stm32f10x_gpio.o(i.GPIO_Init)
    GPIO_PinRemapConfig                      0x080012bd   Thumb Code   138  stm32f10x_gpio.o(i.GPIO_PinRemapConfig)
    GPIO_ReadInputDataBit                    0x080013bd   Thumb Code    18  stm32f10x_gpio.o(i.GPIO_ReadInputDataBit)
    GPIO_ResetBits                           0x080013cf   Thumb Code     4  stm32f10x_gpio.o(i.GPIO_ResetBits)
    GPIO_SetBits                             0x080013d3   Thumb Code     4  stm32f10x_gpio.o(i.GPIO_SetBits)
    GetChipID                                0x080013d9   Thumb Code    60  protocol.o(i.GetChipID)
    Get_Crc8                                 0x0800141d   Thumb Code    56  crc.o(i.Get_Crc8)
    HardFault_Handler                        0x08001455   Thumb Code     4  stm32f10x_it.o(i.HardFault_Handler)
    InitMotor                                0x08001459   Thumb Code   102  motor.o(i.InitMotor)
    InitPWM                                  0x080014c5   Thumb Code   198  motor.o(i.InitPWM)
    Kalman_Filter                            0x080015a1   Thumb Code   558  filters.o(i.Kalman_Filter)
    MPU_Get_Accelerometer                    0x08001819   Thumb Code    80  mpu6050.o(i.MPU_Get_Accelerometer)
    MPU_Get_Gyroscope                        0x08001869   Thumb Code    80  mpu6050.o(i.MPU_Get_Gyroscope)
    MPU_Get_Temperature                      0x080018b9   Thumb Code    86  mpu6050.o(i.MPU_Get_Temperature)
    MPU_IIC_Ack                              0x08001921   Thumb Code    62  mpuiic.o(i.MPU_IIC_Ack)
    MPU_IIC_Delay                            0x0800196d   Thumb Code    10  mpuiic.o(i.MPU_IIC_Delay)
    MPU_IIC_Init                             0x08001979   Thumb Code    54  mpuiic.o(i.MPU_IIC_Init)
    MPU_IIC_NAck                             0x080019b5   Thumb Code    62  mpuiic.o(i.MPU_IIC_NAck)
    MPU_IIC_Read_Byte                        0x08001a01   Thumb Code    94  mpuiic.o(i.MPU_IIC_Read_Byte)
    MPU_IIC_Send_Byte                        0x08001a6d   Thumb Code    80  mpuiic.o(i.MPU_IIC_Send_Byte)
    MPU_IIC_Start                            0x08001ac9   Thumb Code    60  mpuiic.o(i.MPU_IIC_Start)
    MPU_IIC_Stop                             0x08001b11   Thumb Code    58  mpuiic.o(i.MPU_IIC_Stop)
    MPU_IIC_Wait_Ack                         0x08001b59   Thumb Code    86  mpuiic.o(i.MPU_IIC_Wait_Ack)
    MPU_Init                                 0x08001bbd   Thumb Code   122  mpu6050.o(i.MPU_Init)
    MPU_Read_Byte                            0x08001c37   Thumb Code    58  mpu6050.o(i.MPU_Read_Byte)
    MPU_Read_Len                             0x08001c71   Thumb Code   116  mpu6050.o(i.MPU_Read_Len)
    MPU_Set_Accel_Fsr                        0x08001ce5   Thumb Code    16  mpu6050.o(i.MPU_Set_Accel_Fsr)
    MPU_Set_Gyro_Fsr                         0x08001cf5   Thumb Code    16  mpu6050.o(i.MPU_Set_Gyro_Fsr)
    MPU_Set_LPF                              0x08001d05   Thumb Code    58  mpu6050.o(i.MPU_Set_LPF)
    MPU_Set_Rate                             0x08001d3f   Thumb Code    58  mpu6050.o(i.MPU_Set_Rate)
    MPU_Write_Byte                           0x08001d79   Thumb Code    68  mpu6050.o(i.MPU_Write_Byte)
    MPU_Write_Len                            0x08001dbd   Thumb Code    96  mpu6050.o(i.MPU_Write_Len)
    MemManage_Handler                        0x08001e1d   Thumb Code     4  stm32f10x_it.o(i.MemManage_Handler)
    NMI_Handler                              0x08001e21   Thumb Code     2  stm32f10x_it.o(i.NMI_Handler)
    NVIC_Init                                0x08001ea5   Thumb Code   100  misc.o(i.NVIC_Init)
    NVIC_PriorityGroupConfig                 0x08001f15   Thumb Code    10  misc.o(i.NVIC_PriorityGroupConfig)
    PendSV_Handler                           0x08001f29   Thumb Code     2  stm32f10x_it.o(i.PendSV_Handler)
    RCC_ADCCLKConfig                         0x08001f2d   Thumb Code    18  stm32f10x_rcc.o(i.RCC_ADCCLKConfig)
    RCC_AHBPeriphClockCmd                    0x08001f45   Thumb Code    26  stm32f10x_rcc.o(i.RCC_AHBPeriphClockCmd)
    RCC_APB1PeriphClockCmd                   0x08001f65   Thumb Code    26  stm32f10x_rcc.o(i.RCC_APB1PeriphClockCmd)
    RCC_APB2PeriphClockCmd                   0x08001f85   Thumb Code    26  stm32f10x_rcc.o(i.RCC_APB2PeriphClockCmd)
    RCC_ClearFlag                            0x08001fa5   Thumb Code    14  stm32f10x_rcc.o(i.RCC_ClearFlag)
    RCC_GetClocksFreq                        0x08001fe5   Thumb Code   192  stm32f10x_rcc.o(i.RCC_GetClocksFreq)
    ReceiveData                              0x080020b9   Thumb Code  1264  protocol.o(i.ReceiveData)
    SVC_Handler                              0x0800260d   Thumb Code     2  stm32f10x_it.o(i.SVC_Handler)
    SendData                                 0x08002611   Thumb Code  1178  protocol.o(i.SendData)
    SysTick_Handler                          0x08002ba5   Thumb Code    12  boarddrv.o(i.SysTick_Handler)
    SystemInit                               0x08002bb5   Thumb Code    78  system_stm32f10x.o(i.SystemInit)
    TIM_ARRPreloadConfig                     0x08002c15   Thumb Code    24  stm32f10x_tim.o(i.TIM_ARRPreloadConfig)
    TIM_Cmd                                  0x08002c2d   Thumb Code    24  stm32f10x_tim.o(i.TIM_Cmd)
    TIM_CtrlPWMOutputs                       0x08002c45   Thumb Code    30  stm32f10x_tim.o(i.TIM_CtrlPWMOutputs)
    TIM_GetCounter                           0x08002c63   Thumb Code     6  stm32f10x_tim.o(i.TIM_GetCounter)
    TIM_OC1Init                              0x08002c69   Thumb Code   132  stm32f10x_tim.o(i.TIM_OC1Init)
    TIM_OC1PreloadConfig                     0x08002d01   Thumb Code    18  stm32f10x_tim.o(i.TIM_OC1PreloadConfig)
    TIM_OC3Init                              0x08002d15   Thumb Code   150  stm32f10x_tim.o(i.TIM_OC3Init)
    TIM_OC3PreloadConfig                     0x08002db5   Thumb Code    18  stm32f10x_tim.o(i.TIM_OC3PreloadConfig)
    TIM_OC4Init                              0x08002dc9   Thumb Code   114  stm32f10x_tim.o(i.TIM_OC4Init)
    TIM_OC4PreloadConfig                     0x08002e45   Thumb Code    26  stm32f10x_tim.o(i.TIM_OC4PreloadConfig)
    TIM_SetCounter                           0x08002e5f   Thumb Code     4  stm32f10x_tim.o(i.TIM_SetCounter)
    TIM_TimeBaseInit                         0x08002e65   Thumb Code   122  stm32f10x_tim.o(i.TIM_TimeBaseInit)
    UART4_IRQHandler                         0x08002f09   Thumb Code   110  usart.o(i.UART4_IRQHandler)
    USART2_IRQHandler                        0x08002f8d   Thumb Code   108  usart.o(i.USART2_IRQHandler)
    USART3_IRQHandler                        0x08003009   Thumb Code    44  usart.o(i.USART3_IRQHandler)
    USART_ClearFlag                          0x08003041   Thumb Code    18  stm32f10x_usart.o(i.USART_ClearFlag)
    USART_ClearITPendingBit                  0x08003053   Thumb Code    30  stm32f10x_usart.o(i.USART_ClearITPendingBit)
    USART_Cmd                                0x08003071   Thumb Code    24  stm32f10x_usart.o(i.USART_Cmd)
    USART_DMACmd                             0x08003089   Thumb Code    18  stm32f10x_usart.o(i.USART_DMACmd)
    USART_GetFlagStatus                      0x0800309b   Thumb Code    26  stm32f10x_usart.o(i.USART_GetFlagStatus)
    USART_GetITStatus                        0x080030b5   Thumb Code    84  stm32f10x_usart.o(i.USART_GetITStatus)
    USART_ITConfig                           0x08003109   Thumb Code    74  stm32f10x_usart.o(i.USART_ITConfig)
    USART_Init                               0x08003155   Thumb Code   210  stm32f10x_usart.o(i.USART_Init)
    USART_ReceiveData                        0x0800322d   Thumb Code    10  stm32f10x_usart.o(i.USART_ReceiveData)
    UsageFault_Handler                       0x08003237   Thumb Code     4  stm32f10x_it.o(i.UsageFault_Handler)
    WWDG_Enable                              0x0800323d   Thumb Code    10  stm32f10x_wwdg.o(i.WWDG_Enable)
    WWDG_SetCounter                          0x0800324d   Thumb Code    10  stm32f10x_wwdg.o(i.WWDG_SetCounter)
    WWDG_SetPrescaler                        0x0800325d   Thumb Code    18  stm32f10x_wwdg.o(i.WWDG_SetPrescaler)
    WWDG_SetWindowValue                      0x08003275   Thumb Code    34  stm32f10x_wwdg.o(i.WWDG_SetWindowValue)
    __0printf$8                              0x0800329d   Thumb Code    22  printf8.o(i.__0printf$8)
    __1printf$8                              0x0800329d   Thumb Code     0  printf8.o(i.__0printf$8)
    __2printf                                0x0800329d   Thumb Code     0  printf8.o(i.__0printf$8)
    __ARM_fpclassify                         0x080032bd   Thumb Code    40  fpclassify.o(i.__ARM_fpclassify)
    __kernel_poly                            0x080032e5   Thumb Code   170  poly.o(i.__kernel_poly)
    __mathlib_dbl_infnan                     0x0800338f   Thumb Code     6  dunder.o(i.__mathlib_dbl_infnan)
    __mathlib_dbl_infnan2                    0x08003395   Thumb Code     4  dunder.o(i.__mathlib_dbl_infnan2)
    __mathlib_dbl_invalid                    0x08003399   Thumb Code    12  dunder.o(i.__mathlib_dbl_invalid)
    __mathlib_dbl_underflow                  0x080033a5   Thumb Code    10  dunder.o(i.__mathlib_dbl_underflow)
    __scatterload_copy                       0x080033b5   Thumb Code    14  handlers.o(i.__scatterload_copy)
    __scatterload_null                       0x080033c3   Thumb Code     2  handlers.o(i.__scatterload_null)
    __scatterload_zeroinit                   0x080033c5   Thumb Code    14  handlers.o(i.__scatterload_zeroinit)
    __set_errno                              0x080033d5   Thumb Code     6  errno.o(i.__set_errno)
    _delay_us                                0x080035e1   Thumb Code    18  softdelay.o(i._delay_us)
    asin                                     0x08003ca5   Thumb Code   572  asin.o(i.asin)
    atan                                     0x08003f15   Thumb Code   474  atan.o(i.atan)
    atan2                                    0x08004135   Thumb Code   346  atan2.o(i.atan2)
    control_walkingmotor_speed               0x080042b5   Thumb Code    20  motor.o(i.control_walkingmotor_speed)
    disable_watchdog                         0x08004489   Thumb Code    18  watchdog.o(i.disable_watchdog)
    dmp_enable_6x_lp_quat                    0x0800449b   Thumb Code    60  inv_mpu_dmp_motion_driver.o(i.dmp_enable_6x_lp_quat)
    dmp_enable_feature                       0x080044d9   Thumb Code   530  inv_mpu_dmp_motion_driver.o(i.dmp_enable_feature)
    dmp_enable_gyro_cal                      0x080046f5   Thumb Code    62  inv_mpu_dmp_motion_driver.o(i.dmp_enable_gyro_cal)
    dmp_enable_lp_quat                       0x0800474d   Thumb Code    60  inv_mpu_dmp_motion_driver.o(i.dmp_enable_lp_quat)
    dmp_load_motion_driver_firmware          0x08004789   Thumb Code    20  inv_mpu_dmp_motion_driver.o(i.dmp_load_motion_driver_firmware)
    dmp_read_fifo                            0x080047a1   Thumb Code   456  inv_mpu_dmp_motion_driver.o(i.dmp_read_fifo)
    dmp_set_accel_bias                       0x0800496d   Thumb Code   300  inv_mpu_dmp_motion_driver.o(i.dmp_set_accel_bias)
    dmp_set_fifo_rate                        0x08004a9d   Thumb Code    96  inv_mpu_dmp_motion_driver.o(i.dmp_set_fifo_rate)
    dmp_set_gyro_bias                        0x08004b0d   Thumb Code   294  inv_mpu_dmp_motion_driver.o(i.dmp_set_gyro_bias)
    dmp_set_orientation                      0x08004c3d   Thumb Code   290  inv_mpu_dmp_motion_driver.o(i.dmp_set_orientation)
    dmp_set_shake_reject_thresh              0x08004d75   Thumb Code    56  inv_mpu_dmp_motion_driver.o(i.dmp_set_shake_reject_thresh)
    dmp_set_shake_reject_time                0x08004dad   Thumb Code    38  inv_mpu_dmp_motion_driver.o(i.dmp_set_shake_reject_time)
    dmp_set_shake_reject_timeout             0x08004dd3   Thumb Code    38  inv_mpu_dmp_motion_driver.o(i.dmp_set_shake_reject_timeout)
    dmp_set_tap_axes                         0x08004df9   Thumb Code    70  inv_mpu_dmp_motion_driver.o(i.dmp_set_tap_axes)
    dmp_set_tap_count                        0x08004e3f   Thumb Code    38  inv_mpu_dmp_motion_driver.o(i.dmp_set_tap_count)
    dmp_set_tap_thresh                       0x08004e65   Thumb Code   396  inv_mpu_dmp_motion_driver.o(i.dmp_set_tap_thresh)
    dmp_set_tap_time                         0x08005005   Thumb Code    38  inv_mpu_dmp_motion_driver.o(i.dmp_set_tap_time)
    dmp_set_tap_time_multi                   0x0800502b   Thumb Code    38  inv_mpu_dmp_motion_driver.o(i.dmp_set_tap_time_multi)
    drv_led_init                             0x08005de5   Thumb Code    90  led.o(i.drv_led_init)
    drv_led_set                              0x08005e5d   Thumb Code   122  led.o(i.drv_led_set)
    drv_led_shutdown                         0x08005ee5   Thumb Code    86  led.o(i.drv_led_shutdown)
    enable_watchdog                          0x08005f71   Thumb Code    36  watchdog.o(i.enable_watchdog)
    exti_reg_callback                        0x08005fcd   Thumb Code   174  exti.o(i.exti_reg_callback)
    exti_unreg_callback                      0x08006085   Thumb Code   170  exti.o(i.exti_unreg_callback)
    fputc                                    0x08006139   Thumb Code    18  fputc.o(i.fputc)
    get_electricity                          0x08006201   Thumb Code    60  battery.o(i.get_electricity)
    get_electricitypercentage                0x08006255   Thumb Code     6  battery.o(i.get_electricitypercentage)
    get_walkingmotor_lspeed_mm               0x080066d1   Thumb Code    26  motor.o(i.get_walkingmotor_lspeed_mm)
    get_walkingmotor_rspeed_mm               0x080066fd   Thumb Code    26  motor.o(i.get_walkingmotor_rspeed_mm)
    getms                                    0x08006729   Thumb Code     6  boarddrv.o(i.getms)
    getus                                    0x08006735   Thumb Code    76  boarddrv.o(i.getus)
    heartbeat_battery                        0x0800689d   Thumb Code   104  battery.o(i.heartbeat_battery)
    heartbeat_beep                           0x08006915   Thumb Code   270  beep.o(i.heartbeat_beep)
    init_battery                             0x08006a41   Thumb Code    46  battery.o(i.init_battery)
    init_beep                                0x08006a75   Thumb Code   184  beep.o(i.init_beep)
    init_board                               0x08006b39   Thumb Code    34  hwconf.o(i.init_board)
    init_walkingmotor_odometer               0x08006cb9   Thumb Code    46  motor.o(i.init_walkingmotor_odometer)
    inv_orientation_matrix_to_scalar         0x08006d01   Thumb Code    40  inv_mpu.o(i.inv_orientation_matrix_to_scalar)
    inv_row_2_scale                          0x08006d29   Thumb Code    78  inv_mpu.o(i.inv_row_2_scale)
    led_heartbeat                            0x08006d8d   Thumb Code   188  led.o(i.led_heartbeat)
    main                                     0x08006e6d   Thumb Code    70  main.o(i.main)
    mark_watchdog                            0x08006eb3   Thumb Code    10  watchdog.o(i.mark_watchdog)
    mget_ms                                  0x08006ebd   Thumb Code     2  inv_mpu.o(i.mget_ms)
    mpu_configure_fifo                       0x08006ec1   Thumb Code   106  inv_mpu.o(i.mpu_configure_fifo)
    mpu_dmp_get_data                         0x08006f31   Thumb Code   544  inv_mpu.o(i.mpu_dmp_get_data)
    mpu_dmp_init                             0x08007155   Thumb Code   154  inv_mpu.o(i.mpu_dmp_init)
    mpu_get_accel_fsr                        0x080071f5   Thumb Code    72  inv_mpu.o(i.mpu_get_accel_fsr)
    mpu_get_accel_sens                       0x08007241   Thumb Code    78  inv_mpu.o(i.mpu_get_accel_sens)
    mpu_get_fifo_config                      0x08007295   Thumb Code    12  inv_mpu.o(i.mpu_get_fifo_config)
    mpu_get_gyro_fsr                         0x080072a5   Thumb Code    64  inv_mpu.o(i.mpu_get_gyro_fsr)
    mpu_get_gyro_sens                        0x080072e9   Thumb Code    58  inv_mpu.o(i.mpu_get_gyro_sens)
    mpu_get_lpf                              0x08007339   Thumb Code    74  inv_mpu.o(i.mpu_get_lpf)
    mpu_get_sample_rate                      0x08007389   Thumb Code    26  inv_mpu.o(i.mpu_get_sample_rate)
    mpu_init                                 0x080073a9   Thumb Code   416  inv_mpu.o(i.mpu_init)
    mpu_load_firmware                        0x08007599   Thumb Code   180  inv_mpu.o(i.mpu_load_firmware)
    mpu_lp_accel_mode                        0x08007651   Thumb Code   218  inv_mpu.o(i.mpu_lp_accel_mode)
    mpu_read_fifo_stream                     0x08007731   Thumb Code   186  inv_mpu.o(i.mpu_read_fifo_stream)
    mpu_read_mem                             0x080077f1   Thumb Code   122  inv_mpu.o(i.mpu_read_mem)
    mpu_reset_fifo                           0x08007871   Thumb Code   450  inv_mpu.o(i.mpu_reset_fifo)
    mpu_run_self_test                        0x08007a39   Thumb Code   278  inv_mpu.o(i.mpu_run_self_test)
    mpu_set_accel_fsr                        0x08007b55   Thumb Code   126  inv_mpu.o(i.mpu_set_accel_fsr)
    mpu_set_bypass                           0x08007bd9   Thumb Code   328  inv_mpu.o(i.mpu_set_bypass)
    mpu_set_dmp_state                        0x08007d25   Thumb Code   138  inv_mpu.o(i.mpu_set_dmp_state)
    mpu_set_gyro_fsr                         0x08007db5   Thumb Code   132  inv_mpu.o(i.mpu_set_gyro_fsr)
    mpu_set_int_latched                      0x08007e3d   Thumb Code   102  inv_mpu.o(i.mpu_set_int_latched)
    mpu_set_lpf                              0x08007ea9   Thumb Code   126  inv_mpu.o(i.mpu_set_lpf)
    mpu_set_sample_rate                      0x08007f2d   Thumb Code   152  inv_mpu.o(i.mpu_set_sample_rate)
    mpu_set_sensors                          0x08007fc9   Thumb Code   202  inv_mpu.o(i.mpu_set_sensors)
    mpu_write_mem                            0x08008099   Thumb Code   122  inv_mpu.o(i.mpu_write_mem)
    on_abort_mode                            0x08008119   Thumb Code    82  beep.o(i.on_abort_mode)
    play_poweron                             0x080081b1   Thumb Code    84  beep.o(i.play_poweron)
    run_self_test                            0x08008209   Thumb Code   148  inv_mpu.o(i.run_self_test)
    set_walkingmotor_lduty                   0x08008379   Thumb Code   146  motor.o(i.set_walkingmotor_lduty)
    set_walkingmotor_rduty                   0x0800841d   Thumb Code   152  motor.o(i.set_walkingmotor_rduty)
    set_walkingmotor_speed                   0x080084c5   Thumb Code     8  motor.o(i.set_walkingmotor_speed)
    softdelay_calibrate                      0x080084d1   Thumb Code    74  softdelay.o(i.softdelay_calibrate)
    sonar_distance                           0x08008525   Thumb Code   196  sonar.o(i.sonar_distance)
    sonar_get                                0x08008715   Thumb Code    36  sonar.o(i.sonar_get)
    sonar_heartbeat                          0x0800873d   Thumb Code   452  sonar.o(i.sonar_heartbeat)
    sonar_init                               0x0800890d   Thumb Code    92  sonar.o(i.sonar_init)
    speedctl_heartbeat                       0x080089f1   Thumb Code    34  motor.o(i.speedctl_heartbeat)
    sqrt                                     0x08008a19   Thumb Code    76  sqrt.o(i.sqrt)
    stalldetector_heartbeat                  0x08008a65   Thumb Code   200  motor.o(i.stalldetector_heartbeat)
    stalldetector_init                       0x08008b45   Thumb Code    26  motor.o(i.stalldetector_init)
    start_beep                               0x08008b71   Thumb Code     8  beep.o(i.start_beep)
    stop_beep                                0x08008b79   Thumb Code     8  beep.o(i.stop_beep)
    test_button_callback                     0x08008b81   Thumb Code   196  motor.o(i.test_button_callback)
    usart3_init                              0x08008c49   Thumb Code   330  usart.o(i.usart3_init)
    ender                                    0x08008e50   Data           2  protocol.o(.constdata)
    header                                   0x08008e52   Data           2  protocol.o(.constdata)
    reg                                      0x08008e54   Data          27  inv_mpu.o(.constdata)
    hw                                       0x08008e70   Data          12  inv_mpu.o(.constdata)
    test                                     0x08008e7c   Data          40  inv_mpu.o(.constdata)
    __mathlib_zero                           0x08009b88   Data           8  qnan.o(.constdata)
    Region$$Table$$Base                      0x08009be0   Number         0  anon$$obj.o(Region$$Table)
    Region$$Table$$Limit                     0x08009c00   Number         0  anon$$obj.o(Region$$Table)
    _MPU6050                                 0x20000000   Data           4  main.o(.data)
    _MPU6050_DMP                             0x20000004   Data           4  main.o(.data)
    _MOTOR                                   0x20000008   Data           4  main.o(.data)
    _USART3                                  0x2000000c   Data           4  main.o(.data)
    _LED                                     0x20000010   Data           4  main.o(.data)
    _BATTERY                                 0x20000014   Data           4  main.o(.data)
    _BEEP                                    0x20000018   Data           4  main.o(.data)
    _SONAR                                   0x2000001c   Data           4  main.o(.data)
    Temperature                              0x20000020   Data           2  main.o(.data)
    pitch                                    0x20000024   Data           4  main.o(.data)
    roll                                     0x20000028   Data           4  main.o(.data)
    yaw                                      0x2000002c   Data           4  main.o(.data)
    Kp                                       0x200000f4   Data           4  motor.o(.data)
    Ki                                       0x200000f8   Data           4  motor.o(.data)
    Kd                                       0x200000fc   Data           4  motor.o(.data)
    _ticks_per_us                            0x20000104   Data           4  softdelay.o(.data)
    USART2_RX_STA                            0x20000108   Data           2  usart.o(.data)
    Res2                                     0x2000010a   Data           1  usart.o(.data)
    USART3_RX_STA                            0x2000010c   Data           2  usart.o(.data)
    Res3                                     0x2000010e   Data           1  usart.o(.data)
    UART4_RX_STA                             0x20000110   Data           2  usart.o(.data)
    Res4                                     0x20000112   Data           1  usart.o(.data)
    SendCheckSum                             0x2000011c   Data           1  protocol.o(.data)
    ReceiveCheckSum                          0x2000011d   Data           1  protocol.o(.data)
    leftdata                                 0x20000120   Data           4  protocol.o(.data)
    rightdata                                0x20000124   Data           4  protocol.o(.data)
    receive_command                          0x20000128   Data           2  protocol.o(.data)
    receive_header                           0x2000012a   Data           2  protocol.o(.data)
    receive_ender                            0x2000012c   Data           2  protocol.o(.data)
    send_command                             0x2000012e   Data           2  protocol.o(.data)
    vel_left                                 0x20000130   Data           4  protocol.o(.data)
    vel_right                                0x20000134   Data           4  protocol.o(.data)
    temprature                               0x20000138   Data           4  protocol.o(.data)
    odom_yaw                                 0x2000013c   Data           4  protocol.o(.data)
    odom_pitch                               0x20000140   Data           4  protocol.o(.data)
    odom_roll                                0x20000144   Data           4  protocol.o(.data)
    sonar_front                              0x20000148   Data           4  protocol.o(.data)
    sonar_back                               0x2000014c   Data           4  protocol.o(.data)
    sonar_left                               0x20000150   Data           4  protocol.o(.data)
    sonar_right                              0x20000154   Data           4  protocol.o(.data)
    electricity                              0x20000158   Data           4  protocol.o(.data)
    battery_percentage                       0x2000015c   Data           4  protocol.o(.data)
    command                                  0x20000160   Data           2  protocol.o(.data)
    angle                                    0x2000019c   Data           4  filters.o(.data)
    angle_dot                                0x200001a0   Data           4  filters.o(.data)
    Q_angle                                  0x200001a4   Data           4  filters.o(.data)
    Q_gyro                                   0x200001a8   Data           4  filters.o(.data)
    R_angle                                  0x200001ac   Data           4  filters.o(.data)
    dt                                       0x200001b0   Data           4  filters.o(.data)
    C_0                                      0x200001b4   Data           1  filters.o(.data)
    Q_bias                                   0x200001b8   Data           4  filters.o(.data)
    Angle_err                                0x200001bc   Data           4  filters.o(.data)
    PCt_0                                    0x200001c0   Data           4  filters.o(.data)
    PCt_1                                    0x200001c4   Data           4  filters.o(.data)
    E                                        0x200001c8   Data           4  filters.o(.data)
    K_0                                      0x200001cc   Data           4  filters.o(.data)
    K_1                                      0x200001d0   Data           4  filters.o(.data)
    t_0                                      0x200001d4   Data           4  filters.o(.data)
    t_1                                      0x200001d8   Data           4  filters.o(.data)
    PP                                       0x200001dc   Data          16  filters.o(.data)
    voltage                                  0x200001ec   Data           4  hwconf.o(.data)
    __stdout                                 0x20000204   Data           4  stdout.o(.data)
    send_data                                0x2000020c   Data         200  usart.o(.bss)
    USART2_RX_BUF                            0x200002d4   Data         200  usart.o(.bss)
    USART3_RX_BUF                            0x2000039c   Data         200  usart.o(.bss)
    UART4_RX_BUF                             0x20000464   Data         200  usart.o(.bss)
    _ID                                      0x200005bc   Data          12  protocol.o(.bss)
    Pdot                                     0x200005d8   Data          16  filters.o(.bss)
    __initial_sp                             0x200009e8   Data           0  startup_stm32f10x_hd.o(STACK)



==============================================================================

Memory Map of the image

  Image Entry point : 0x08000131

  Load Region LR_IROM1 (Base: 0x08000000, Size: 0x00009e0c, Max: 0x00040000, ABSOLUTE, COMPRESSED[0x00009c6c])

    Execution Region ER_IROM1 (Base: 0x08000000, Size: 0x00009c00, Max: 0x00040000, ABSOLUTE)

    Base Addr    Size         Type   Attr      Idx    E Section Name        Object

    0x08000000   0x00000130   Data   RO         2339    RESET               startup_stm32f10x_hd.o
    0x08000130   0x00000000   Code   RO         4212  * .ARM.Collect$$$$00000000  mc_w.l(entry.o)
    0x08000130   0x00000004   Code   RO         4553    .ARM.Collect$$$$00000001  mc_w.l(entry2.o)
    0x08000134   0x00000004   Code   RO         4556    .ARM.Collect$$$$00000004  mc_w.l(entry5.o)
    0x08000138   0x00000000   Code   RO         4558    .ARM.Collect$$$$00000008  mc_w.l(entry7b.o)
    0x08000138   0x00000000   Code   RO         4560    .ARM.Collect$$$$0000000A  mc_w.l(entry8b.o)
    0x08000138   0x00000008   Code   RO         4561    .ARM.Collect$$$$0000000B  mc_w.l(entry9a.o)
    0x08000140   0x00000000   Code   RO         4563    .ARM.Collect$$$$0000000D  mc_w.l(entry10a.o)
    0x08000140   0x00000000   Code   RO         4565    .ARM.Collect$$$$0000000F  mc_w.l(entry11a.o)
    0x08000140   0x00000004   Code   RO         4554    .ARM.Collect$$$$00002712  mc_w.l(entry2.o)
    0x08000144   0x00000024   Code   RO         2340    .text               startup_stm32f10x_hd.o
    0x08000168   0x00000062   Code   RO         4215    .text               mc_w.l(uldiv.o)
    0x080001ca   0x00000062   Code   RO         4217    .text               mc_w.l(ldiv.o)
    0x0800022c   0x00000024   Code   RO         4219    .text               mc_w.l(memseta.o)
    0x08000250   0x0000001a   Code   RO         4221    .text               mc_w.l(memcmp.o)
    0x0800026a   0x000000b0   Code   RO         4484    .text               mf_w.l(fadd.o)
    0x0800031a   0x00000064   Code   RO         4486    .text               mf_w.l(fmul.o)
    0x0800037e   0x0000007c   Code   RO         4488    .text               mf_w.l(fdiv.o)
    0x080003fa   0x0000014e   Code   RO         4490    .text               mf_w.l(dadd.o)
    0x08000548   0x000000e4   Code   RO         4492    .text               mf_w.l(dmul.o)
    0x0800062c   0x000000de   Code   RO         4494    .text               mf_w.l(ddiv.o)
    0x0800070a   0x00000012   Code   RO         4496    .text               mf_w.l(fflti.o)
    0x0800071c   0x0000000a   Code   RO         4498    .text               mf_w.l(ffltui.o)
    0x08000726   0x00000022   Code   RO         4500    .text               mf_w.l(dflti.o)
    0x08000748   0x0000001a   Code   RO         4502    .text               mf_w.l(dfltui.o)
    0x08000762   0x00000032   Code   RO         4504    .text               mf_w.l(ffixi.o)
    0x08000794   0x00000028   Code   RO         4506    .text               mf_w.l(ffixui.o)
    0x080007bc   0x00000026   Code   RO         4508    .text               mf_w.l(f2d.o)
    0x080007e2   0x00000038   Code   RO         4510    .text               mf_w.l(d2f.o)
    0x0800081a   0x00000002   PAD
    0x0800081c   0x00000014   Code   RO         4512    .text               mf_w.l(cfcmple.o)
    0x08000830   0x00000014   Code   RO         4514    .text               mf_w.l(cfrcmple.o)
    0x08000844   0x0000001e   Code   RO         4572    .text               mc_w.l(llshl.o)
    0x08000862   0x00000020   Code   RO         4574    .text               mc_w.l(llushr.o)
    0x08000882   0x00000024   Code   RO         4576    .text               mc_w.l(llsshr.o)
    0x080008a6   0x00000000   Code   RO         4585    .text               mc_w.l(iusefp.o)
    0x080008a6   0x0000006e   Code   RO         4586    .text               mf_w.l(fepilogue.o)
    0x08000914   0x000000ba   Code   RO         4588    .text               mf_w.l(depilogue.o)
    0x080009ce   0x0000002e   Code   RO         4590    .text               mf_w.l(dscalb.o)
    0x080009fc   0x00000024   Code   RO         4596    .text               mc_w.l(init.o)
    0x08000a20   0x00000000   Code   RO         4598    .text               mc_w.l(semi.o)
    0x08000a20   0x00000000   Code   RO         4599    .text               mc_w.l(iusesemip.o)
    0x08000a20   0x000000a2   Code   RO         4600    .text               mf_w.l(dsqrt.o)
    0x08000ac2   0x0000003a   Code   RO         4612    .text               mc_w.l(__dczerorl.o)
    0x08000afc   0x00000016   Code   RO         2447    i.ADC_Cmd           stm32f10x_adc.o
    0x08000b12   0x00000002   PAD
    0x08000b14   0x000000d8   Code   RO         2195    i.ADC_Configuration  hwconf.o
    0x08000bec   0x00000016   Code   RO         2448    i.ADC_DMACmd        stm32f10x_adc.o
    0x08000c02   0x00000014   Code   RO         2455    i.ADC_GetCalibrationStatus  stm32f10x_adc.o
    0x08000c16   0x00000014   Code   RO         2461    i.ADC_GetResetCalibrationStatus  stm32f10x_adc.o
    0x08000c2a   0x00000002   PAD
    0x08000c2c   0x00000050   Code   RO         2465    i.ADC_Init          stm32f10x_adc.o
    0x08000c7c   0x000000b8   Code   RO         2469    i.ADC_RegularChannelConfig  stm32f10x_adc.o
    0x08000d34   0x0000000a   Code   RO         2470    i.ADC_ResetCalibration  stm32f10x_adc.o
    0x08000d3e   0x00000016   Code   RO         2472    i.ADC_SoftwareStartConvCmd  stm32f10x_adc.o
    0x08000d54   0x0000000a   Code   RO         2474    i.ADC_StartCalibration  stm32f10x_adc.o
    0x08000d5e   0x00000004   Code   RO         2271    i.BusFault_Handler  stm32f10x_it.o
    0x08000d62   0x00000002   PAD
    0x08000d64   0x0000001c   Code   RO         2675    i.DMA_ClearFlag     stm32f10x_dma.o
    0x08000d80   0x00000018   Code   RO         2677    i.DMA_Cmd           stm32f10x_dma.o
    0x08000d98   0x0000014c   Code   RO         2678    i.DMA_DeInit        stm32f10x_dma.o
    0x08000ee4   0x0000001e   Code   RO          901    i.DMA_Enable        usart.o
    0x08000f02   0x00000002   PAD
    0x08000f04   0x0000002c   Code   RO         2680    i.DMA_GetFlagStatus  stm32f10x_dma.o
    0x08000f30   0x0000003c   Code   RO         2683    i.DMA_Init          stm32f10x_dma.o
    0x08000f6c   0x00000004   Code   RO         2684    i.DMA_SetCurrDataCounter  stm32f10x_dma.o
    0x08000f70   0x00000002   Code   RO         2272    i.DebugMon_Handler  stm32f10x_it.o
    0x08000f72   0x00000002   PAD
    0x08000f74   0x00000028   Code   RO         1054    i.EXTI0_IRQHandler  exti.o
    0x08000f9c   0x00000048   Code   RO         1055    i.EXTI15_10_IRQHandler  exti.o
    0x08000fe4   0x00000028   Code   RO         1056    i.EXTI1_IRQHandler  exti.o
    0x0800100c   0x00000028   Code   RO         1057    i.EXTI2_IRQHandler  exti.o
    0x08001034   0x00000028   Code   RO         1058    i.EXTI3_IRQHandler  exti.o
    0x0800105c   0x00000028   Code   RO         1059    i.EXTI4_IRQHandler  exti.o
    0x08001084   0x00000040   Code   RO         1060    i.EXTI9_5_IRQHandler  exti.o
    0x080010c4   0x0000000c   Code   RO         2760    i.EXTI_ClearITPendingBit  stm32f10x_exti.o
    0x080010d0   0x00000094   Code   RO         2765    i.EXTI_Init         stm32f10x_exti.o
    0x08001164   0x00000040   Code   RO         2828    i.GPIO_EXTILineConfig  stm32f10x_gpio.o
    0x080011a4   0x00000116   Code   RO         2831    i.GPIO_Init         stm32f10x_gpio.o
    0x080012ba   0x00000002   PAD
    0x080012bc   0x00000090   Code   RO         2833    i.GPIO_PinRemapConfig  stm32f10x_gpio.o
    0x0800134c   0x00000070   Code   RO          627    i.GPIO_PortSource   motor.o
    0x080013bc   0x00000012   Code   RO         2835    i.GPIO_ReadInputDataBit  stm32f10x_gpio.o
    0x080013ce   0x00000004   Code   RO         2838    i.GPIO_ResetBits    stm32f10x_gpio.o
    0x080013d2   0x00000004   Code   RO         2839    i.GPIO_SetBits      stm32f10x_gpio.o
    0x080013d6   0x00000002   PAD
    0x080013d8   0x00000044   Code   RO         1265    i.GetChipID         protocol.o
    0x0800141c   0x00000038   Code   RO          510    i.Get_Crc8          crc.o
    0x08001454   0x00000004   Code   RO         2273    i.HardFault_Handler  stm32f10x_it.o
    0x08001458   0x0000006c   Code   RO          628    i.InitMotor         motor.o
    0x080014c4   0x000000dc   Code   RO          629    i.InitPWM           motor.o
    0x080015a0   0x00000278   Code   RO         2121    i.Kalman_Filter     filters.o
    0x08001818   0x00000050   Code   RO         1331    i.MPU_Get_Accelerometer  mpu6050.o
    0x08001868   0x00000050   Code   RO         1332    i.MPU_Get_Gyroscope  mpu6050.o
    0x080018b8   0x00000068   Code   RO         1333    i.MPU_Get_Temperature  mpu6050.o
    0x08001920   0x0000004c   Code   RO         1446    i.MPU_IIC_Ack       mpuiic.o
    0x0800196c   0x0000000a   Code   RO         1447    i.MPU_IIC_Delay     mpuiic.o
    0x08001976   0x00000002   PAD
    0x08001978   0x0000003c   Code   RO         1448    i.MPU_IIC_Init      mpuiic.o
    0x080019b4   0x0000004c   Code   RO         1449    i.MPU_IIC_NAck      mpuiic.o
    0x08001a00   0x0000006c   Code   RO         1450    i.MPU_IIC_Read_Byte  mpuiic.o
    0x08001a6c   0x0000005c   Code   RO         1451    i.MPU_IIC_Send_Byte  mpuiic.o
    0x08001ac8   0x00000048   Code   RO         1452    i.MPU_IIC_Start     mpuiic.o
    0x08001b10   0x00000048   Code   RO         1453    i.MPU_IIC_Stop      mpuiic.o
    0x08001b58   0x00000064   Code   RO         1454    i.MPU_IIC_Wait_Ack  mpuiic.o
    0x08001bbc   0x0000007a   Code   RO         1334    i.MPU_Init          mpu6050.o
    0x08001c36   0x0000003a   Code   RO         1335    i.MPU_Read_Byte     mpu6050.o
    0x08001c70   0x00000074   Code   RO         1336    i.MPU_Read_Len      mpu6050.o
    0x08001ce4   0x00000010   Code   RO         1337    i.MPU_Set_Accel_Fsr  mpu6050.o
    0x08001cf4   0x00000010   Code   RO         1338    i.MPU_Set_Gyro_Fsr  mpu6050.o
    0x08001d04   0x0000003a   Code   RO         1339    i.MPU_Set_LPF       mpu6050.o
    0x08001d3e   0x0000003a   Code   RO         1340    i.MPU_Set_Rate      mpu6050.o
    0x08001d78   0x00000044   Code   RO         1341    i.MPU_Write_Byte    mpu6050.o
    0x08001dbc   0x00000060   Code   RO         1342    i.MPU_Write_Len     mpu6050.o
    0x08001e1c   0x00000004   Code   RO         2274    i.MemManage_Handler  stm32f10x_it.o
    0x08001e20   0x00000002   Code   RO         2275    i.NMI_Handler       stm32f10x_it.o
    0x08001e22   0x00000066   Code   RO          630    i.NVIC_Configuration  motor.o
    0x08001e88   0x0000001c   Code   RO         2196    i.NVIC_Configuration  hwconf.o
    0x08001ea4   0x00000070   Code   RO         2393    i.NVIC_Init         misc.o
    0x08001f14   0x00000014   Code   RO         2394    i.NVIC_PriorityGroupConfig  misc.o
    0x08001f28   0x00000002   Code   RO         2276    i.PendSV_Handler    stm32f10x_it.o
    0x08001f2a   0x00000002   PAD
    0x08001f2c   0x00000018   Code   RO         3167    i.RCC_ADCCLKConfig  stm32f10x_rcc.o
    0x08001f44   0x00000020   Code   RO         3168    i.RCC_AHBPeriphClockCmd  stm32f10x_rcc.o
    0x08001f64   0x00000020   Code   RO         3169    i.RCC_APB1PeriphClockCmd  stm32f10x_rcc.o
    0x08001f84   0x00000020   Code   RO         3171    i.RCC_APB2PeriphClockCmd  stm32f10x_rcc.o
    0x08001fa4   0x00000014   Code   RO         3175    i.RCC_ClearFlag     stm32f10x_rcc.o
    0x08001fb8   0x0000002c   Code   RO         2197    i.RCC_Configuration  hwconf.o
    0x08001fe4   0x000000d4   Code   RO         3179    i.RCC_GetClocksFreq  stm32f10x_rcc.o
    0x080020b8   0x00000510   Code   RO         1266    i.ReceiveData       protocol.o
    0x080025c8   0x00000044   Code   RO         1160    i.SONAR_TRIG        sonar.o
    0x0800260c   0x00000002   Code   RO         2277    i.SVC_Handler       stm32f10x_it.o
    0x0800260e   0x00000002   PAD
    0x08002610   0x000004ac   Code   RO         1267    i.SendData          protocol.o
    0x08002abc   0x00000008   Code   RO         2347    i.SetSysClock       system_stm32f10x.o
    0x08002ac4   0x000000e0   Code   RO         2348    i.SetSysClockTo72   system_stm32f10x.o
    0x08002ba4   0x00000010   Code   RO          387    i.SysTick_Handler   boarddrv.o
    0x08002bb4   0x00000060   Code   RO         2350    i.SystemInit        system_stm32f10x.o
    0x08002c14   0x00000018   Code   RO         3383    i.TIM_ARRPreloadConfig  stm32f10x_tim.o
    0x08002c2c   0x00000018   Code   RO         3395    i.TIM_Cmd           stm32f10x_tim.o
    0x08002c44   0x0000001e   Code   RO         3397    i.TIM_CtrlPWMOutputs  stm32f10x_tim.o
    0x08002c62   0x00000006   Code   RO         3414    i.TIM_GetCounter    stm32f10x_tim.o
    0x08002c68   0x00000098   Code   RO         3424    i.TIM_OC1Init       stm32f10x_tim.o
    0x08002d00   0x00000012   Code   RO         3427    i.TIM_OC1PreloadConfig  stm32f10x_tim.o
    0x08002d12   0x00000002   PAD
    0x08002d14   0x000000a0   Code   RO         3434    i.TIM_OC3Init       stm32f10x_tim.o
    0x08002db4   0x00000012   Code   RO         3437    i.TIM_OC3PreloadConfig  stm32f10x_tim.o
    0x08002dc6   0x00000002   PAD
    0x08002dc8   0x0000007c   Code   RO         3439    i.TIM_OC4Init       stm32f10x_tim.o
    0x08002e44   0x0000001a   Code   RO         3441    i.TIM_OC4PreloadConfig  stm32f10x_tim.o
    0x08002e5e   0x00000004   Code   RO         3460    i.TIM_SetCounter    stm32f10x_tim.o
    0x08002e62   0x00000002   PAD
    0x08002e64   0x000000a4   Code   RO         3466    i.TIM_TimeBaseInit  stm32f10x_tim.o
    0x08002f08   0x00000084   Code   RO          902    i.UART4_IRQHandler  usart.o
    0x08002f8c   0x0000007c   Code   RO          903    i.USART2_IRQHandler  usart.o
    0x08003008   0x00000038   Code   RO          904    i.USART3_IRQHandler  usart.o
    0x08003040   0x00000012   Code   RO         3939    i.USART_ClearFlag   stm32f10x_usart.o
    0x08003052   0x0000001e   Code   RO         3940    i.USART_ClearITPendingBit  stm32f10x_usart.o
    0x08003070   0x00000018   Code   RO         3943    i.USART_Cmd         stm32f10x_usart.o
    0x08003088   0x00000012   Code   RO         3944    i.USART_DMACmd      stm32f10x_usart.o
    0x0800309a   0x0000001a   Code   RO         3946    i.USART_GetFlagStatus  stm32f10x_usart.o
    0x080030b4   0x00000054   Code   RO         3947    i.USART_GetITStatus  stm32f10x_usart.o
    0x08003108   0x0000004a   Code   RO         3949    i.USART_ITConfig    stm32f10x_usart.o
    0x08003152   0x00000002   PAD
    0x08003154   0x000000d8   Code   RO         3950    i.USART_Init        stm32f10x_usart.o
    0x0800322c   0x0000000a   Code   RO         3957    i.USART_ReceiveData  stm32f10x_usart.o
    0x08003236   0x00000004   Code   RO         2278    i.UsageFault_Handler  stm32f10x_it.o
    0x0800323a   0x00000002   PAD
    0x0800323c   0x00000010   Code   RO         4133    i.WWDG_Enable       stm32f10x_wwdg.o
    0x0800324c   0x00000010   Code   RO         4136    i.WWDG_SetCounter   stm32f10x_wwdg.o
    0x0800325c   0x00000018   Code   RO         4137    i.WWDG_SetPrescaler  stm32f10x_wwdg.o
    0x08003274   0x00000028   Code   RO         4138    i.WWDG_SetWindowValue  stm32f10x_wwdg.o
    0x0800329c   0x00000020   Code   RO         4430    i.__0printf$8       mc_w.l(printf8.o)
    0x080032bc   0x00000028   Code   RO         4540    i.__ARM_fpclassify  m_ws.l(fpclassify.o)
    0x080032e4   0x000000aa   Code   RO         4542    i.__kernel_poly     m_ws.l(poly.o)
    0x0800338e   0x00000006   Code   RO         4527    i.__mathlib_dbl_infnan  m_ws.l(dunder.o)
    0x08003394   0x00000004   Code   RO         4528    i.__mathlib_dbl_infnan2  m_ws.l(dunder.o)
    0x08003398   0x0000000c   Code   RO         4529    i.__mathlib_dbl_invalid  m_ws.l(dunder.o)
    0x080033a4   0x00000010   Code   RO         4532    i.__mathlib_dbl_underflow  m_ws.l(dunder.o)
    0x080033b4   0x0000000e   Code   RO         4606    i.__scatterload_copy  mc_w.l(handlers.o)
    0x080033c2   0x00000002   Code   RO         4607    i.__scatterload_null  mc_w.l(handlers.o)
    0x080033c4   0x0000000e   Code   RO         4608    i.__scatterload_zeroinit  mc_w.l(handlers.o)
    0x080033d2   0x00000002   PAD
    0x080033d4   0x0000000c   Code   RO         4580    i.__set_errno       mc_w.l(errno.o)
    0x080033e0   0x0000015c   Code   RO          631    i._control_walkingmotor_speed_byid  motor.o
    0x0800353c   0x00000004   Code   RO          388    i._default_abort_proc  boarddrv.o
    0x08003540   0x00000010   Code   RO          838    i._delay_loop       softdelay.o
    0x08003550   0x00000018   Code   RO            4    i._delay_ms         main.o
    0x08003568   0x00000018   Code   RO          274    i._delay_ms         beep.o
    0x08003580   0x00000018   Code   RO          632    i._delay_ms         motor.o
    0x08003598   0x00000018   Code   RO         1062    i._delay_ms         exti.o
    0x080035b0   0x00000018   Code   RO         1343    i._delay_ms         mpu6050.o
    0x080035c8   0x00000018   Code   RO         1546    i._delay_ms         inv_mpu.o
    0x080035e0   0x00000018   Code   RO          840    i._delay_us         softdelay.o
    0x080035f8   0x00000410   Code   RO         4437    i._printf_core      mc_w.l(printf8.o)
    0x08003a08   0x00000024   Code   RO         4438    i._printf_post_padding  mc_w.l(printf8.o)
    0x08003a2c   0x0000002e   Code   RO         4439    i._printf_pre_padding  mc_w.l(printf8.o)
    0x08003a5a   0x00000002   PAD
    0x08003a5c   0x00000118   Code   RO          633    i._refresh_walkingmotor_odometer  motor.o
    0x08003b74   0x00000034   Code   RO          634    i._release_walkingmotor_l  motor.o
    0x08003ba8   0x00000034   Code   RO          635    i._release_walkingmotor_r  motor.o
    0x08003bdc   0x00000020   Code   RO          636    i._set_walkingmotor_duty  motor.o
    0x08003bfc   0x000000a8   Code   RO         1547    i.accel_self_test   inv_mpu.o
    0x08003ca4   0x00000270   Code   RO         4195    i.asin              m_ws.l(asin.o)
    0x08003f14   0x00000220   Code   RO         4517    i.atan              m_ws.l(atan.o)
    0x08004134   0x00000180   Code   RO         4205    i.atan2             m_ws.l(atan2.o)
    0x080042b4   0x00000014   Code   RO          638    i.control_walkingmotor_speed  motor.o
    0x080042c8   0x00000030   Code   RO          639    i.countbit          motor.o
    0x080042f8   0x00000064   Code   RO         1927    i.decode_gesture    inv_mpu_dmp_motion_driver.o
    0x0800435c   0x00000108   Code   RO            6    i.dev_heartbeat     main.o
    0x08004464   0x00000024   Code   RO          277    i.disable_beep      beep.o
    0x08004488   0x00000012   Code   RO          995    i.disable_watchdog  watchdog.o
    0x0800449a   0x0000003c   Code   RO         1928    i.dmp_enable_6x_lp_quat  inv_mpu_dmp_motion_driver.o
    0x080044d6   0x00000002   PAD
    0x080044d8   0x0000021c   Code   RO         1929    i.dmp_enable_feature  inv_mpu_dmp_motion_driver.o
    0x080046f4   0x00000058   Code   RO         1930    i.dmp_enable_gyro_cal  inv_mpu_dmp_motion_driver.o
    0x0800474c   0x0000003c   Code   RO         1931    i.dmp_enable_lp_quat  inv_mpu_dmp_motion_driver.o
    0x08004788   0x00000018   Code   RO         1936    i.dmp_load_motion_driver_firmware  inv_mpu_dmp_motion_driver.o
    0x080047a0   0x000001cc   Code   RO         1937    i.dmp_read_fifo     inv_mpu_dmp_motion_driver.o
    0x0800496c   0x00000130   Code   RO         1940    i.dmp_set_accel_bias  inv_mpu_dmp_motion_driver.o
    0x08004a9c   0x00000070   Code   RO         1941    i.dmp_set_fifo_rate  inv_mpu_dmp_motion_driver.o
    0x08004b0c   0x00000130   Code   RO         1942    i.dmp_set_gyro_bias  inv_mpu_dmp_motion_driver.o
    0x08004c3c   0x00000138   Code   RO         1944    i.dmp_set_orientation  inv_mpu_dmp_motion_driver.o
    0x08004d74   0x00000038   Code   RO         1947    i.dmp_set_shake_reject_thresh  inv_mpu_dmp_motion_driver.o
    0x08004dac   0x00000026   Code   RO         1948    i.dmp_set_shake_reject_time  inv_mpu_dmp_motion_driver.o
    0x08004dd2   0x00000026   Code   RO         1949    i.dmp_set_shake_reject_timeout  inv_mpu_dmp_motion_driver.o
    0x08004df8   0x00000046   Code   RO         1950    i.dmp_set_tap_axes  inv_mpu_dmp_motion_driver.o
    0x08004e3e   0x00000026   Code   RO         1951    i.dmp_set_tap_count  inv_mpu_dmp_motion_driver.o
    0x08004e64   0x000001a0   Code   RO         1952    i.dmp_set_tap_thresh  inv_mpu_dmp_motion_driver.o
    0x08005004   0x00000026   Code   RO         1953    i.dmp_set_tap_time  inv_mpu_dmp_motion_driver.o
    0x0800502a   0x00000026   Code   RO         1954    i.dmp_set_tap_time_multi  inv_mpu_dmp_motion_driver.o
    0x08005050   0x00000d94   Code   RO          550    i.drv_led_cmd       led.o
    0x08005de4   0x0000006c   Code   RO          551    i.drv_led_init      led.o
    0x08005e50   0x0000000a   Code   RO          552    i.drv_led_reset     led.o
    0x08005e5a   0x00000002   PAD
    0x08005e5c   0x00000088   Code   RO          553    i.drv_led_set       led.o
    0x08005ee4   0x00000068   Code   RO          554    i.drv_led_shutdown  led.o
    0x08005f4c   0x00000024   Code   RO          278    i.enable_beep       beep.o
    0x08005f70   0x00000024   Code   RO          996    i.enable_watchdog   watchdog.o
    0x08005f94   0x00000010   Code   RO          640    i.encoder_l1_exti_cb  motor.o
    0x08005fa4   0x00000010   Code   RO          641    i.encoder_r1_exti_cb  motor.o
    0x08005fb4   0x0000000c   Code   RO          397    i.enter_critical_section  boarddrv.o
    0x08005fc0   0x0000000c   Code   RO          642    i.enter_critical_section  motor.o
    0x08005fcc   0x000000b8   Code   RO         1065    i.exti_reg_callback  exti.o
    0x08006084   0x000000b4   Code   RO         1066    i.exti_unreg_callback  exti.o
    0x08006138   0x00000012   Code   RO         4567    i.fputc             mc_w.l(fputc.o)
    0x0800614a   0x00000002   PAD
    0x0800614c   0x000000b4   Code   RO         1550    i.get_accel_prod_shift  inv_mpu.o
    0x08006200   0x00000054   Code   RO          207    i.get_electricity   battery.o
    0x08006254   0x0000000c   Code   RO          208    i.get_electricitypercentage  battery.o
    0x08006260   0x00000470   Code   RO         1551    i.get_st_biases     inv_mpu.o
    0x080066d0   0x00000020   Code   RO          643    i.get_walkingmotor_lspeed_mm  motor.o
    0x080066f0   0x0000000c   Code   RO          644    i.get_walkingmotor_lspeed_set  motor.o
    0x080066fc   0x00000020   Code   RO          645    i.get_walkingmotor_rspeed_mm  motor.o
    0x0800671c   0x0000000c   Code   RO          646    i.get_walkingmotor_rspeed_set  motor.o
    0x08006728   0x0000000c   Code   RO          400    i.getms             boarddrv.o
    0x08006734   0x00000058   Code   RO          401    i.getus             boarddrv.o
    0x0800678c   0x00000110   Code   RO         1552    i.gyro_self_test    inv_mpu.o
    0x0800689c   0x00000078   Code   RO          209    i.heartbeat_battery  battery.o
    0x08006914   0x0000012c   Code   RO          280    i.heartbeat_beep    beep.o
    0x08006a40   0x00000034   Code   RO          210    i.init_battery      battery.o
    0x08006a74   0x000000c4   Code   RO          281    i.init_beep         beep.o
    0x08006b38   0x0000002c   Code   RO         2201    i.init_board        hwconf.o
    0x08006b64   0x00000078   Code   RO            8    i.init_dev          main.o
    0x08006bdc   0x000000dc   Code   RO          647    i.init_extix        motor.o
    0x08006cb8   0x00000048   Code   RO          648    i.init_walkingmotor_odometer  motor.o
    0x08006d00   0x00000028   Code   RO         1553    i.inv_orientation_matrix_to_scalar  inv_mpu.o
    0x08006d28   0x0000004e   Code   RO         1554    i.inv_row_2_scale   inv_mpu.o
    0x08006d76   0x0000000a   Code   RO          403    i.leave_critical_section  boarddrv.o
    0x08006d80   0x0000000a   Code   RO          649    i.leave_critical_section  motor.o
    0x08006d8a   0x00000002   PAD
    0x08006d8c   0x000000cc   Code   RO          557    i.led_heartbeat     led.o
    0x08006e58   0x00000014   Code   RO           10    i.loop              main.o
    0x08006e6c   0x00000046   Code   RO           11    i.main              main.o
    0x08006eb2   0x0000000a   Code   RO          999    i.mark_watchdog     watchdog.o
    0x08006ebc   0x00000002   Code   RO         1556    i.mget_ms           inv_mpu.o
    0x08006ebe   0x00000002   PAD
    0x08006ec0   0x00000070   Code   RO         1557    i.mpu_configure_fifo  inv_mpu.o
    0x08006f30   0x00000224   Code   RO         1559    i.mpu_dmp_get_data  inv_mpu.o
    0x08007154   0x000000a0   Code   RO         1560    i.mpu_dmp_init      inv_mpu.o
    0x080071f4   0x0000004c   Code   RO         1561    i.mpu_get_accel_fsr  inv_mpu.o
    0x08007240   0x00000054   Code   RO         1563    i.mpu_get_accel_sens  inv_mpu.o
    0x08007294   0x00000010   Code   RO         1568    i.mpu_get_fifo_config  inv_mpu.o
    0x080072a4   0x00000044   Code   RO         1569    i.mpu_get_gyro_fsr  inv_mpu.o
    0x080072e8   0x00000050   Code   RO         1571    i.mpu_get_gyro_sens  inv_mpu.o
    0x08007338   0x00000050   Code   RO         1573    i.mpu_get_lpf       inv_mpu.o
    0x08007388   0x00000020   Code   RO         1575    i.mpu_get_sample_rate  inv_mpu.o
    0x080073a8   0x000001f0   Code   RO         1577    i.mpu_init          inv_mpu.o
    0x08007598   0x000000b8   Code   RO         1578    i.mpu_load_firmware  inv_mpu.o
    0x08007650   0x000000e0   Code   RO         1579    i.mpu_lp_accel_mode  inv_mpu.o
    0x08007730   0x000000c0   Code   RO         1582    i.mpu_read_fifo_stream  inv_mpu.o
    0x080077f0   0x00000080   Code   RO         1583    i.mpu_read_mem      inv_mpu.o
    0x08007870   0x000001c8   Code   RO         1586    i.mpu_reset_fifo    inv_mpu.o
    0x08007a38   0x0000011c   Code   RO         1587    i.mpu_run_self_test  inv_mpu.o
    0x08007b54   0x00000084   Code   RO         1589    i.mpu_set_accel_fsr  inv_mpu.o
    0x08007bd8   0x0000014c   Code   RO         1590    i.mpu_set_bypass    inv_mpu.o
    0x08007d24   0x00000090   Code   RO         1592    i.mpu_set_dmp_state  inv_mpu.o
    0x08007db4   0x00000088   Code   RO         1593    i.mpu_set_gyro_fsr  inv_mpu.o
    0x08007e3c   0x0000006c   Code   RO         1594    i.mpu_set_int_latched  inv_mpu.o
    0x08007ea8   0x00000084   Code   RO         1596    i.mpu_set_lpf       inv_mpu.o
    0x08007f2c   0x0000009c   Code   RO         1597    i.mpu_set_sample_rate  inv_mpu.o
    0x08007fc8   0x000000d0   Code   RO         1598    i.mpu_set_sensors   inv_mpu.o
    0x08008098   0x00000080   Code   RO         1599    i.mpu_write_mem     inv_mpu.o
    0x08008118   0x00000058   Code   RO          283    i.on_abort_mode     beep.o
    0x08008170   0x00000020   Code   RO          650    i.pinMode           motor.o
    0x08008190   0x00000020   Code   RO         1165    i.pinMode           sonar.o
    0x080081b0   0x00000058   Code   RO          285    i.play_poweron      beep.o
    0x08008208   0x00000094   Code   RO         1601    i.run_self_test     inv_mpu.o
    0x0800829c   0x0000004c   Code   RO         2204    i.set_board_systick  hwconf.o
    0x080082e8   0x00000090   Code   RO         1602    i.set_int_enable    inv_mpu.o
    0x08008378   0x000000a4   Code   RO          651    i.set_walkingmotor_lduty  motor.o
    0x0800841c   0x000000a8   Code   RO          652    i.set_walkingmotor_rduty  motor.o
    0x080084c4   0x0000000c   Code   RO          653    i.set_walkingmotor_speed  motor.o
    0x080084d0   0x00000054   Code   RO          845    i.softdelay_calibrate  softdelay.o
    0x08008524   0x000000e0   Code   RO         1166    i.sonar_distance    sonar.o
    0x08008604   0x00000110   Code   RO         1168    i.sonar_exti_cb     sonar.o
    0x08008714   0x00000028   Code   RO         1169    i.sonar_get         sonar.o
    0x0800873c   0x000001d0   Code   RO         1170    i.sonar_heartbeat   sonar.o
    0x0800890c   0x00000064   Code   RO         1171    i.sonar_init        sonar.o
    0x08008970   0x0000002c   Code   RO         1172    i.sonar_shutdown    sonar.o
    0x0800899c   0x00000054   Code   RO         1173    i.sonar_trigger     sonar.o
    0x080089f0   0x00000028   Code   RO          654    i.speedctl_heartbeat  motor.o
    0x08008a18   0x0000004c   Code   RO         4546    i.sqrt              m_ws.l(sqrt.o)
    0x08008a64   0x000000e0   Code   RO          656    i.stalldetector_heartbeat  motor.o
    0x08008b44   0x0000002c   Code   RO          657    i.stalldetector_init  motor.o
    0x08008b70   0x00000008   Code   RO          289    i.start_beep        beep.o
    0x08008b78   0x00000008   Code   RO          290    i.stop_beep         beep.o
    0x08008b80   0x000000c8   Code   RO          660    i.test_button_callback  motor.o
    0x08008c48   0x00000160   Code   RO          912    i.usart3_init       usart.o
    0x08008da8   0x00000058   Data   RO          661    .constdata          motor.o
    0x08008e00   0x00000050   Data   RO         1175    .constdata          sonar.o
    0x08008e50   0x00000004   Data   RO         1274    .constdata          protocol.o
    0x08008e54   0x00000050   Data   RO         1604    .constdata          inv_mpu.o
    0x08008ea4   0x00000bf6   Data   RO         1956    .constdata          inv_mpu_dmp_motion_driver.o
    0x08009a9a   0x00000006   PAD
    0x08009aa0   0x00000050   Data   RO         4196    .constdata          m_ws.l(asin.o)
    0x08009af0   0x00000098   Data   RO         4518    .constdata          m_ws.l(atan.o)
    0x08009b88   0x00000008   Data   RO         4544    .constdata          m_ws.l(qnan.o)
    0x08009b90   0x0000004d   Data   RO         1605    .conststring        inv_mpu.o
    0x08009bdd   0x00000003   PAD
    0x08009be0   0x00000020   Data   RO         4604    Region$$Table       anon$$obj.o


    Execution Region RW_IRAM1 (Base: 0x20000000, Size: 0x000009e8, Max: 0x0000c000, ABSOLUTE, COMPRESSED[0x0000006c])

    Base Addr    Size         Type   Attr      Idx    E Section Name        Object

    0x20000000   0x00000030   Data   RW           13    .data               main.o
    0x20000030   0x00000008   Data   RW          213    .data               battery.o
    0x20000038   0x00000030   Data   RW          291    .data               beep.o
    0x20000068   0x0000000c   Data   RW          405    .data               boarddrv.o
    0x20000074   0x00000011   Data   RW          559    .data               led.o
    0x20000085   0x00000003   PAD
    0x20000088   0x0000007c   Data   RW          662    .data               motor.o
    0x20000104   0x00000004   Data   RW          846    .data               softdelay.o
    0x20000108   0x0000000b   Data   RW          914    .data               usart.o
    0x20000113   0x00000007   Data   RW         1070    .data               exti.o
    0x2000011a   0x00000001   Data   RW         1176    .data               sonar.o
    0x2000011b   0x00000001   PAD
    0x2000011c   0x00000046   Data   RW         1275    .data               protocol.o
    0x20000162   0x00000002   PAD
    0x20000164   0x00000035   Data   RW         1606    .data               inv_mpu.o
    0x20000199   0x00000003   PAD
    0x2000019c   0x00000050   Data   RW         2131    .data               filters.o
    0x200001ec   0x00000004   Data   RW         2205    .data               hwconf.o
    0x200001f0   0x00000014   Data   RW         3199    .data               stm32f10x_rcc.o
    0x20000204   0x00000004   Data   RW         4569    .data               mc_w.l(stdout.o)
    0x20000208   0x00000004   Data   RW         4581    .data               mc_w.l(errno.o)
    0x2000020c   0x00000320   Zero   RW          913    .bss                usart.o
    0x2000052c   0x00000040   Zero   RW         1069    .bss                exti.o
    0x2000056c   0x00000050   Zero   RW         1174    .bss                sonar.o
    0x200005bc   0x0000000c   Zero   RW         1273    .bss                protocol.o
    0x200005c8   0x00000010   Zero   RW         1955    .bss                inv_mpu_dmp_motion_driver.o
    0x200005d8   0x00000010   Zero   RW         2130    .bss                filters.o
    0x200005e8   0x00000400   Zero   RW         2337    STACK               startup_stm32f10x_hd.o


==============================================================================

Image component sizes


      Code (inc. data)   RO Data    RW Data    ZI Data      Debug   Object Name

       268         52          0          8          0       2245   battery.o
       784         62          0         48          0       5057   beep.o
       142         22          0         12          0       3494   boarddrv.o
        56          0          0          0          0        907   crc.o
       724         78          0          7         64       5873   exti.o
       632         74          0         80         16       1671   filters.o
       408         44          0          4          0      27646   hwconf.o
      6888        290        157         53          0      31212   inv_mpu.o
      3096        122       3062          0         16      20462   inv_mpu_dmp_motion_driver.o
      4038         82          0         17          0       3672   led.o
       498         70          0         48          0     285816   main.o
       132         22          0          0          0       1691   misc.o
      2716        338         88        124          0      17819   motor.o
       896         18          0          0          0       8445   mpu6050.o
       666        100          0          0          0       4722   mpuiic.o
      2560        182          4         70         12       6135   protocol.o
       124         16          0          4          0       1994   softdelay.o
      1328         92         80          1         80       7186   sonar.o
        36          8        304          0       1024        820   startup_stm32f10x_hd.o
       390         10          0          0          0       7797   stm32f10x_adc.o
       492         26          0          0          0       5391   stm32f10x_dma.o
       160         12          0          0          0       1649   stm32f10x_exti.o
       512         10          0          0          0       5400   stm32f10x_gpio.o
        24          0          0          0          0       3380   stm32f10x_it.o
       352         50          0         20          0       6289   stm32f10x_rcc.o
       750         82          0          0          0       8326   stm32f10x_tim.o
       500          6          0          0          0       7807   stm32f10x_usart.o
        96         24          0          0          0       2998   stm32f10x_wwdg.o
       328         28          0          0          0       2005   system_stm32f10x.o
       694         72          0         11        800       3735   usart.o
        64          0          0          0          0       1353   watchdog.o

    ----------------------------------------------------------------------
     30392       1992       3736        516       2012     492997   Object Totals
         0          0         32          0          0          0   (incl. Generated)
        38          0          9          9          0          0   (incl. Padding)

    ----------------------------------------------------------------------

      Code (inc. data)   RO Data    RW Data    ZI Data      Debug   Library Member Name

       624         52         80          0          0        168   asin.o
       544         70        152          0          0        124   atan.o
       384         38          0          0          0        144   atan2.o
        38          6          0          0          0        272   dunder.o
        40          0          0          0          0         68   fpclassify.o
       170          0          0          0          0         96   poly.o
         0          0          8          0          0          0   qnan.o
        76          0          0          0          0         84   sqrt.o
        58          0          0          0          0          0   __dczerorl.o
         0          0          0          0          0          0   entry.o
         0          0          0          0          0          0   entry10a.o
         0          0          0          0          0          0   entry11a.o
         8          4          0          0          0          0   entry2.o
         4          0          0          0          0          0   entry5.o
         0          0          0          0          0          0   entry7b.o
         0          0          0          0          0          0   entry8b.o
         8          4          0          0          0          0   entry9a.o
        12          6          0          4          0         68   errno.o
        18          0          0          0          0         80   fputc.o
        30          0          0          0          0          0   handlers.o
        36          8          0          0          0         68   init.o
         0          0          0          0          0          0   iusefp.o
         0          0          0          0          0          0   iusesemip.o
        98          0          0          0          0         84   ldiv.o
        30          0          0          0          0         68   llshl.o
        36          0          0          0          0         68   llsshr.o
        32          0          0          0          0         68   llushr.o
        26          0          0          0          0         80   memcmp.o
        36          0          0          0          0        108   memseta.o
      1154         54          0          0          0        352   printf8.o
         0          0          0          0          0          0   semi.o
         0          0          0          4          0          0   stdout.o
        98          0          0          0          0         92   uldiv.o
        20          0          0          0          0         68   cfcmple.o
        20          0          0          0          0         68   cfrcmple.o
        56          0          0          0          0         88   d2f.o
       334          0          0          0          0        148   dadd.o
       222          0          0          0          0        100   ddiv.o
       186          0          0          0          0        176   depilogue.o
        34          0          0          0          0         76   dflti.o
        26          0          0          0          0         76   dfltui.o
       228          0          0          0          0         96   dmul.o
        46          0          0          0          0         80   dscalb.o
       162          0          0          0          0        100   dsqrt.o
        38          0          0          0          0         68   f2d.o
       176          0          0          0          0        140   fadd.o
       124          0          0          0          0         88   fdiv.o
       110          0          0          0          0        168   fepilogue.o
        50          0          0          0          0         68   ffixi.o
        40          0          0          0          0         68   ffixui.o
        18          0          0          0          0         68   fflti.o
        10          0          0          0          0         68   ffltui.o
       100          0          0          0          0         76   fmul.o

    ----------------------------------------------------------------------
      5568        242        240          8          0       3980   Library Totals
         8          0          0          0          0          0   (incl. Padding)

    ----------------------------------------------------------------------

      Code (inc. data)   RO Data    RW Data    ZI Data      Debug   Library Name

      1876        166        240          0          0        956   m_ws.l
      1684         76          0          8          0       1136   mc_w.l
      2000          0          0          0          0       1888   mf_w.l

    ----------------------------------------------------------------------
      5568        242        240          8          0       3980   Library Totals

    ----------------------------------------------------------------------

==============================================================================


      Code (inc. data)   RO Data    RW Data    ZI Data      Debug   

     35960       2234       3976        524       2012     482597   Grand Totals
     35960       2234       3976        108       2012     482597   ELF Image Totals (compressed)
     35960       2234       3976        108          0          0   ROM Totals

==============================================================================

    Total RO  Size (Code + RO Data)                39936 (  39.00kB)
    Total RW  Size (RW Data + ZI Data)              2536 (   2.48kB)
    Total ROM Size (Code + RO Data + RW Data)      40044 (  39.11kB)

==============================================================================

